
kernel8.elf:     file format elf64-littleaarch64

Sections:
Idx Name          Size      VMA               LMA               File off  Algn
  0 .text         000013ec  0000000000080000  0000000000080000  00000800  2**11
                  CONTENTS, ALLOC, LOAD, READONLY, CODE
  1 .rodata       00000200  00000000000813f0  00000000000813f0  00001bf0  2**3
                  CONTENTS, ALLOC, LOAD, READONLY, DATA
  2 .bss          00000004  00000000000815f0  00000000000815f0  00001df0  2**2
                  ALLOC
Contents of section .text:
 80000 a10038d5 3f0440f2 60000054 5f2003d5  ..8.?.@.`..T_ ..
 80010 ffffff17 01000090 21000091 01411cd5  ........!....A..
 80020 0000b0d2 00007fb2 00111cd5 02000090  ................
 80030 42002091 02c018d5 827880d2 02401cd5  B. ......x...@..
 80040 62000010 22401cd5 e0039fd6 3f000091  b..."@......?...
 80050 010000b0 21c01791 62490018 82000034  ....!...bI.....4
 80060 3f8400f8 42040051 a2ffff35 91030094  ?...B..Q...5....
 80070 e7ffff17 e0039fd6 e007bfa9 e20fbfa9  ................
 80080 e417bfa9 e61fbfa9 e827bfa9 ea2fbfa9  .........'.../..
 80090 ec37bfa9 ee3fbfa9 f047bfa9 f24fbfa9  .7...?...G...O..
 800a0 f457bfa9 f65fbfa9 f867bfa9 fa6fbfa9  .W..._...g...o..
 800b0 fc77bfa9 fe0f1ff8 82040094 fe0741f8  .w............A.
 800c0 fc77c1a8 fa6fc1a8 f867c1a8 f65fc1a8  .w...o...g..._..
 800d0 f457c1a8 f24fc1a8 f047c1a8 ee3fc1a8  .W...O...G...?..
 800e0 ec37c1a8 ea2fc1a8 e827c1a8 e61fc1a8  .7.../...'......
 800f0 e417c1a8 e20fc1a8 e007c1a8 e0039fd6  ................
 80100 e0039fd6 e0039fd6 1f2003d5 1f2003d5  ......... ... ..
 80110 1f2003d5 1f2003d5 1f2003d5 1f2003d5  . ... ... ... ..
 80120 1f2003d5 1f2003d5 1f2003d5 1f2003d5  . ... ... ... ..
 80130 1f2003d5 1f2003d5 1f2003d5 1f2003d5  . ... ... ... ..
 80140 1f2003d5 1f2003d5 1f2003d5 1f2003d5  . ... ... ... ..
 80150 1f2003d5 1f2003d5 1f2003d5 1f2003d5  . ... ... ... ..
 80160 1f2003d5 1f2003d5 1f2003d5 1f2003d5  . ... ... ... ..
 80170 1f2003d5 1f2003d5 1f2003d5 1f2003d5  . ... ... ... ..
 80180 1f2003d5 1f2003d5 1f2003d5 1f2003d5  . ... ... ... ..
 80190 1f2003d5 1f2003d5 1f2003d5 1f2003d5  . ... ... ... ..
 801a0 1f2003d5 1f2003d5 1f2003d5 1f2003d5  . ... ... ... ..
 801b0 1f2003d5 1f2003d5 1f2003d5 1f2003d5  . ... ... ... ..
 801c0 1f2003d5 1f2003d5 1f2003d5 1f2003d5  . ... ... ... ..
 801d0 1f2003d5 1f2003d5 1f2003d5 1f2003d5  . ... ... ... ..
 801e0 1f2003d5 1f2003d5 1f2003d5 1f2003d5  . ... ... ... ..
 801f0 1f2003d5 1f2003d5 1f2003d5 1f2003d5  . ... ... ... ..
 80200 1f2003d5 1f2003d5 1f2003d5 1f2003d5  . ... ... ... ..
 80210 1f2003d5 1f2003d5 1f2003d5 1f2003d5  . ... ... ... ..
 80220 1f2003d5 1f2003d5 1f2003d5 1f2003d5  . ... ... ... ..
 80230 1f2003d5 1f2003d5 1f2003d5 1f2003d5  . ... ... ... ..
 80240 1f2003d5 1f2003d5 1f2003d5 1f2003d5  . ... ... ... ..
 80250 1f2003d5 1f2003d5 1f2003d5 1f2003d5  . ... ... ... ..
 80260 1f2003d5 1f2003d5 1f2003d5 1f2003d5  . ... ... ... ..
 80270 1f2003d5 1f2003d5 1f2003d5 1f2003d5  . ... ... ... ..
 80280 1f2003d5 1f2003d5 1f2003d5 1f2003d5  . ... ... ... ..
 80290 1f2003d5 1f2003d5 1f2003d5 1f2003d5  . ... ... ... ..
 802a0 1f2003d5 1f2003d5 1f2003d5 1f2003d5  . ... ... ... ..
 802b0 1f2003d5 1f2003d5 1f2003d5 1f2003d5  . ... ... ... ..
 802c0 1f2003d5 1f2003d5 1f2003d5 1f2003d5  . ... ... ... ..
 802d0 1f2003d5 1f2003d5 1f2003d5 1f2003d5  . ... ... ... ..
 802e0 1f2003d5 1f2003d5 1f2003d5 1f2003d5  . ... ... ... ..
 802f0 1f2003d5 1f2003d5 1f2003d5 1f2003d5  . ... ... ... ..
 80300 1f2003d5 1f2003d5 1f2003d5 1f2003d5  . ... ... ... ..
 80310 1f2003d5 1f2003d5 1f2003d5 1f2003d5  . ... ... ... ..
 80320 1f2003d5 1f2003d5 1f2003d5 1f2003d5  . ... ... ... ..
 80330 1f2003d5 1f2003d5 1f2003d5 1f2003d5  . ... ... ... ..
 80340 1f2003d5 1f2003d5 1f2003d5 1f2003d5  . ... ... ... ..
 80350 1f2003d5 1f2003d5 1f2003d5 1f2003d5  . ... ... ... ..
 80360 1f2003d5 1f2003d5 1f2003d5 1f2003d5  . ... ... ... ..
 80370 1f2003d5 1f2003d5 1f2003d5 1f2003d5  . ... ... ... ..
 80380 1f2003d5 1f2003d5 1f2003d5 1f2003d5  . ... ... ... ..
 80390 1f2003d5 1f2003d5 1f2003d5 1f2003d5  . ... ... ... ..
 803a0 1f2003d5 1f2003d5 1f2003d5 1f2003d5  . ... ... ... ..
 803b0 1f2003d5 1f2003d5 1f2003d5 1f2003d5  . ... ... ... ..
 803c0 1f2003d5 1f2003d5 1f2003d5 1f2003d5  . ... ... ... ..
 803d0 1f2003d5 1f2003d5 1f2003d5 1f2003d5  . ... ... ... ..
 803e0 1f2003d5 1f2003d5 1f2003d5 1f2003d5  . ... ... ... ..
 803f0 1f2003d5 1f2003d5 1f2003d5 1f2003d5  . ... ... ... ..
 80400 1f2003d5 1f2003d5 1f2003d5 1f2003d5  . ... ... ... ..
 80410 1f2003d5 1f2003d5 1f2003d5 1f2003d5  . ... ... ... ..
 80420 1f2003d5 1f2003d5 1f2003d5 1f2003d5  . ... ... ... ..
 80430 1f2003d5 1f2003d5 1f2003d5 1f2003d5  . ... ... ... ..
 80440 1f2003d5 1f2003d5 1f2003d5 1f2003d5  . ... ... ... ..
 80450 1f2003d5 1f2003d5 1f2003d5 1f2003d5  . ... ... ... ..
 80460 1f2003d5 1f2003d5 1f2003d5 1f2003d5  . ... ... ... ..
 80470 1f2003d5 1f2003d5 1f2003d5 1f2003d5  . ... ... ... ..
 80480 1f2003d5 1f2003d5 1f2003d5 1f2003d5  . ... ... ... ..
 80490 1f2003d5 1f2003d5 1f2003d5 1f2003d5  . ... ... ... ..
 804a0 1f2003d5 1f2003d5 1f2003d5 1f2003d5  . ... ... ... ..
 804b0 1f2003d5 1f2003d5 1f2003d5 1f2003d5  . ... ... ... ..
 804c0 1f2003d5 1f2003d5 1f2003d5 1f2003d5  . ... ... ... ..
 804d0 1f2003d5 1f2003d5 1f2003d5 1f2003d5  . ... ... ... ..
 804e0 1f2003d5 1f2003d5 1f2003d5 1f2003d5  . ... ... ... ..
 804f0 1f2003d5 1f2003d5 1f2003d5 1f2003d5  . ... ... ... ..
 80500 1f2003d5 1f2003d5 1f2003d5 1f2003d5  . ... ... ... ..
 80510 1f2003d5 1f2003d5 1f2003d5 1f2003d5  . ... ... ... ..
 80520 1f2003d5 1f2003d5 1f2003d5 1f2003d5  . ... ... ... ..
 80530 1f2003d5 1f2003d5 1f2003d5 1f2003d5  . ... ... ... ..
 80540 1f2003d5 1f2003d5 1f2003d5 1f2003d5  . ... ... ... ..
 80550 1f2003d5 1f2003d5 1f2003d5 1f2003d5  . ... ... ... ..
 80560 1f2003d5 1f2003d5 1f2003d5 1f2003d5  . ... ... ... ..
 80570 1f2003d5 1f2003d5 1f2003d5 1f2003d5  . ... ... ... ..
 80580 1f2003d5 1f2003d5 1f2003d5 1f2003d5  . ... ... ... ..
 80590 1f2003d5 1f2003d5 1f2003d5 1f2003d5  . ... ... ... ..
 805a0 1f2003d5 1f2003d5 1f2003d5 1f2003d5  . ... ... ... ..
 805b0 1f2003d5 1f2003d5 1f2003d5 1f2003d5  . ... ... ... ..
 805c0 1f2003d5 1f2003d5 1f2003d5 1f2003d5  . ... ... ... ..
 805d0 1f2003d5 1f2003d5 1f2003d5 1f2003d5  . ... ... ... ..
 805e0 1f2003d5 1f2003d5 1f2003d5 1f2003d5  . ... ... ... ..
 805f0 1f2003d5 1f2003d5 1f2003d5 1f2003d5  . ... ... ... ..
 80600 1f2003d5 1f2003d5 1f2003d5 1f2003d5  . ... ... ... ..
 80610 1f2003d5 1f2003d5 1f2003d5 1f2003d5  . ... ... ... ..
 80620 1f2003d5 1f2003d5 1f2003d5 1f2003d5  . ... ... ... ..
 80630 1f2003d5 1f2003d5 1f2003d5 1f2003d5  . ... ... ... ..
 80640 1f2003d5 1f2003d5 1f2003d5 1f2003d5  . ... ... ... ..
 80650 1f2003d5 1f2003d5 1f2003d5 1f2003d5  . ... ... ... ..
 80660 1f2003d5 1f2003d5 1f2003d5 1f2003d5  . ... ... ... ..
 80670 1f2003d5 1f2003d5 1f2003d5 1f2003d5  . ... ... ... ..
 80680 1f2003d5 1f2003d5 1f2003d5 1f2003d5  . ... ... ... ..
 80690 1f2003d5 1f2003d5 1f2003d5 1f2003d5  . ... ... ... ..
 806a0 1f2003d5 1f2003d5 1f2003d5 1f2003d5  . ... ... ... ..
 806b0 1f2003d5 1f2003d5 1f2003d5 1f2003d5  . ... ... ... ..
 806c0 1f2003d5 1f2003d5 1f2003d5 1f2003d5  . ... ... ... ..
 806d0 1f2003d5 1f2003d5 1f2003d5 1f2003d5  . ... ... ... ..
 806e0 1f2003d5 1f2003d5 1f2003d5 1f2003d5  . ... ... ... ..
 806f0 1f2003d5 1f2003d5 1f2003d5 1f2003d5  . ... ... ... ..
 80700 1f2003d5 1f2003d5 1f2003d5 1f2003d5  . ... ... ... ..
 80710 1f2003d5 1f2003d5 1f2003d5 1f2003d5  . ... ... ... ..
 80720 1f2003d5 1f2003d5 1f2003d5 1f2003d5  . ... ... ... ..
 80730 1f2003d5 1f2003d5 1f2003d5 1f2003d5  . ... ... ... ..
 80740 1f2003d5 1f2003d5 1f2003d5 1f2003d5  . ... ... ... ..
 80750 1f2003d5 1f2003d5 1f2003d5 1f2003d5  . ... ... ... ..
 80760 1f2003d5 1f2003d5 1f2003d5 1f2003d5  . ... ... ... ..
 80770 1f2003d5 1f2003d5 1f2003d5 1f2003d5  . ... ... ... ..
 80780 1f2003d5 1f2003d5 1f2003d5 1f2003d5  . ... ... ... ..
 80790 1f2003d5 1f2003d5 1f2003d5 1f2003d5  . ... ... ... ..
 807a0 1f2003d5 1f2003d5 1f2003d5 1f2003d5  . ... ... ... ..
 807b0 1f2003d5 1f2003d5 1f2003d5 1f2003d5  . ... ... ... ..
 807c0 1f2003d5 1f2003d5 1f2003d5 1f2003d5  . ... ... ... ..
 807d0 1f2003d5 1f2003d5 1f2003d5 1f2003d5  . ... ... ... ..
 807e0 1f2003d5 1f2003d5 1f2003d5 1f2003d5  . ... ... ... ..
 807f0 1f2003d5 1f2003d5 1f2003d5 1f2003d5  . ... ... ... ..
 80800 1dfeff17 1f2003d5 1f2003d5 1f2003d5  ..... ... ... ..
 80810 1f2003d5 1f2003d5 1f2003d5 1f2003d5  . ... ... ... ..
 80820 1f2003d5 1f2003d5 1f2003d5 1f2003d5  . ... ... ... ..
 80830 1f2003d5 1f2003d5 1f2003d5 1f2003d5  . ... ... ... ..
 80840 1f2003d5 1f2003d5 1f2003d5 1f2003d5  . ... ... ... ..
 80850 1f2003d5 1f2003d5 1f2003d5 1f2003d5  . ... ... ... ..
 80860 1f2003d5 1f2003d5 1f2003d5 1f2003d5  . ... ... ... ..
 80870 1f2003d5 1f2003d5 1f2003d5 1f2003d5  . ... ... ... ..
 80880 fefdff17 1f2003d5 1f2003d5 1f2003d5  ..... ... ... ..
 80890 1f2003d5 1f2003d5 1f2003d5 1f2003d5  . ... ... ... ..
 808a0 1f2003d5 1f2003d5 1f2003d5 1f2003d5  . ... ... ... ..
 808b0 1f2003d5 1f2003d5 1f2003d5 1f2003d5  . ... ... ... ..
 808c0 1f2003d5 1f2003d5 1f2003d5 1f2003d5  . ... ... ... ..
 808d0 1f2003d5 1f2003d5 1f2003d5 1f2003d5  . ... ... ... ..
 808e0 1f2003d5 1f2003d5 1f2003d5 1f2003d5  . ... ... ... ..
 808f0 1f2003d5 1f2003d5 1f2003d5 1f2003d5  . ... ... ... ..
 80900 00feff17 1f2003d5 1f2003d5 1f2003d5  ..... ... ... ..
 80910 1f2003d5 1f2003d5 1f2003d5 1f2003d5  . ... ... ... ..
 80920 1f2003d5 1f2003d5 1f2003d5 1f2003d5  . ... ... ... ..
 80930 1f2003d5 1f2003d5 1f2003d5 1f2003d5  . ... ... ... ..
 80940 1f2003d5 1f2003d5 1f2003d5 1f2003d5  . ... ... ... ..
 80950 1f2003d5 1f2003d5 1f2003d5 1f2003d5  . ... ... ... ..
 80960 1f2003d5 1f2003d5 1f2003d5 1f2003d5  . ... ... ... ..
 80970 1f2003d5 1f2003d5 1f2003d5 1f2003d5  . ... ... ... ..
 80980 e1fdff17 00000000 404238d5 00fc42d3  ........@B8...B.
 80990 00044092 c0035fd6 004238d5 c0035fd6  ..@..._..B8..._.
 809a0 00423bd5 00fc5cd3 000c4092 c0035fd6  .B;...\...@..._.
 809b0 20423bd5 00fc46d3 000c4092 c0035fd6   B;...F...@..._.
 809c0 ff4f03d5 c0035fd6 df4f03d5 c0035fd6  .O...._..O...._.
 809d0 ff4203d5 c0035fd6 df4203d5 c0035fd6  .B...._..B...._.
 809e0 ff4103d5 c0035fd6 df4103d5 c0035fd6  .A...._..A...._.
 809f0 820080d2 831280d2 02e4a7f2 03e4a7f2  ................
 80a00 04008452 c0128052 410040b9 2400a072  ...R...RA.@.$..r
 80a10 21640e12 2100042a 410000b9 7f0000b9  !d..!..*A.......
 80a20 1f2003d5 00040071 c1ffff54 011380d2  . .....q...T....
 80a30 02009852 01e4a7f2 c0128052 220000b9  ...R.......R"...
 80a40 1f2003d5 00040071 c1ffff54 001380d2  . .....q...T....
 80a50 83008ad2 00e4a7f2 23e4a7f2 89088ad2  ........#.......
 80a60 010c8ad2 1f0000b9 29e4a7f2 21e4a7f2  ........)...!...
 80a70 88098ad2 600040b9 28e4a7f2 070a8ad2  ....`.@.(.......
 80a80 05098ad2 00000032 600000b9 3f0100b9  .......2`...?...
 80a90 27e4a7f2 3f0000b9 62008052 25e4a7f2  '...?...b..R%...
 80aa0 020100b9 040d8ad2 ff0000b9 24e4a7f2  ............$...
 80ab0 c6188052 a60000b9 c0218052 800000b9  ...R.....!.R....
 80ac0 220000b9 c0035fd6 820a8ad2 22e4a7f2  "....._....."...
 80ad0 1f2003d5 410040b9 c1ff2f36 01088ad2  . ..A.@.../6....
 80ae0 21e4a7f2 200000b9 c0035fd6 1f2003d5  !... ....._.. ..
 80af0 810a8ad2 21e4a7f2 1f2003d5 200040b9  ....!.... .. .@.
 80b00 c0ff0736 00088ad2 41018052 20e4a7f2  ...6....A..R ...
 80b10 000040b9 001c0012 1f340071 0010811a  ..@......4.q....
 80b20 c0035fd6 1f2003d5 01004039 21020034  .._.. ....@9!..4
 80b30 820a8ad2 04088ad2 22e4a7f2 24e4a7f2  ........"...$...
 80b40 a5018052 1f2003d5 3f280071 40010054  ...R. ..?(.q@..T
 80b50 03144038 1f2003d5 1f2003d5 410040b9  ..@8. ... ..A.@.
 80b60 c1ff2f36 830000b9 01004039 e1feff35  ../6......@9...5
 80b70 c0035fd6 1f2003d5 410040b9 c1ff2f36  .._.. ..A.@.../6
 80b80 850000b9 f3ffff17 820a8ad2 06088ad2  ................
 80b90 83038052 22e4a7f2 26e4a7f2 1f2003d5  ...R"...&.... ..
 80ba0 0124c31a 210c0012 25dc0011 24c00011  .$..!...%...$...
 80bb0 3f280071 8430851a 1f2003d5 410040b9  ?(.q.0... ..A.@.
 80bc0 c1ff2f36 c40000b9 63100051 7f100031  ../6....c..Q...1
 80bd0 81feff54 c0035fd6 020180d2 831280d2  ...T.._.........
 80be0 02e4a7f2 03e4a7f2 c0128052 410040b9  ...........RA.@.
 80bf0 21701312 410000b9 7f0000b9 1f2003d5  !p..A........ ..
 80c00 1f2003d5 00040071 c1ffff54 011380d2  . .....q...T....
 80c10 0220a052 01e4a7f2 c0128052 220000b9  . .R.......R"...
 80c20 1f2003d5 00040071 c1ffff54 011380d2  . .....q...T....
 80c30 820980d2 01e4a7f2 02e4a7f2 804296d2  .............B..
 80c40 0320a052 3f0000b9 00e0a7f2 430000b9  . .R?.......C...
 80c50 0102a052 010000b9 c0035fd6 1f2003d5  ...R......_.. ..
 80c60 020180d2 831280d2 02e4a7f2 03e4a7f2  ................
 80c70 c0128052 410040b9 21701412 410000b9  ...RA.@.!p..A...
 80c80 7f0000b9 1f2003d5 1f2003d5 00040071  ..... ... .....q
 80c90 c1ffff54 011380d2 0210a052 01e4a7f2  ...T.......R....
 80ca0 c0128052 220000b9 1f2003d5 00040071  ...R".... .....q
 80cb0 c1ffff54 011380d2 020b80d2 01e4a7f2  ...T............
 80cc0 02e4a7f2 804296d2 0310a052 3f0000b9  .....B.....R?...
 80cd0 00e0a7f2 430000b9 0102a052 010000b9  ....C......R....
 80ce0 c0035fd6 1f2003d5 820080d2 831280d2  .._.. ..........
 80cf0 02e4a7f2 03e4a7f2 c0128052 410040b9  ...........RA.@.
 80d00 21700812 21000b32 410000b9 7f0000b9  !p..!..2A.......
 80d10 1f2003d5 00040071 c1ffff54 011380d2  . .....q...T....
 80d20 4200a052 01e4a7f2 c0128052 220000b9  B..R.......R"...
 80d30 1f2003d5 00040071 c1ffff54 001380d2  . .....q...T....
 80d40 00e4a7f2 1f0000b9 c0035fd6 1f2003d5  .........._.. ..
 80d50 800380d2 4100a052 00e4a7f2 010000b9  ....A..R........
 80d60 c0035fd6 1f2003d5 000580d2 4100a052  .._.. ......A..R
 80d70 00e4a7f2 010000b9 c0035fd6 1f2003d5  .........._.. ..
 80d80 020180d2 831280d2 02e4a7f2 03e4a7f2  ................
 80d90 c0128052 410040b9 21700812 21000b32  ...RA.@.!p..!..2
 80da0 410000b9 7f0000b9 1f2003d5 00040071  A........ .....q
 80db0 c1ffff54 011380d2 0200a152 01e4a7f2  ...T.......R....
 80dc0 c0128052 220000b9 1f2003d5 00040071  ...R".... .....q
 80dd0 c1ffff54 001380d2 00e4a7f2 1f0000b9  ...T............
 80de0 c0035fd6 1f2003d5 800380d2 0100a152  .._.. .........R
 80df0 00e4a7f2 010000b9 c0035fd6 1f2003d5  .........._.. ..
 80e00 000580d2 0100a152 00e4a7f2 010000b9  .......R........
 80e10 c0035fd6 1f2003d5 020180d2 831280d2  .._.. ..........
 80e20 02e4a7f2 03e4a7f2 c0128052 410040b9  ...........RA.@.
 80e30 21701712 21001a32 410000b9 7f0000b9  !p..!..2A.......
 80e40 1f2003d5 00040071 c1ffff54 011380d2  . .....q...T....
 80e50 0208a052 01e4a7f2 c0128052 220000b9  ...R.......R"...
 80e60 1f2003d5 00040071 c1ffff54 001380d2  . .....q...T....
 80e70 00e4a7f2 1f0000b9 c0035fd6 1f2003d5  .........._.. ..
 80e80 800380d2 0108a052 00e4a7f2 010000b9  .......R........
 80e90 c0035fd6 1f2003d5 000580d2 0108a052  .._.. .........R
 80ea0 00e4a7f2 010000b9 c0035fd6 00000000  .........._.....
 80eb0 fd7bbaa9 fd030091 f35301a9 940980d2  .{.......S......
 80ec0 f55b02a9 964296d2 f76303a9 16e0a7f2  .[...B...c......
 80ed0 f96b04a9 14e4a7f2 fb7305a9 c5feff97  .k.......s......
 80ee0 aafeff97 f303002a 000000b0 00c00f91  .......*........
 80ef0 0effff97 150000b0 e003132a 130000b0  ...........*....
 80f00 22ffff97 73421091 e00313aa 07ffff97  "...sB..........
 80f10 a2feff97 f703002a 000000b0 00601091  .......*.....`..
 80f20 02ffff97 e003172a 18ffff97 e00313aa  .......*........
 80f30 fefeff97 9ffeff97 f703002a 000000b0  ...........*....
 80f40 00a01091 f9feff97 e003172a 0fffff97  ...........*....
 80f50 e00313aa f5feff97 d70240b9 000000b0  ..........@.....
 80f60 00201191 f1feff97 e003172a 07ffff97  . .........*....
 80f70 e00313aa edfeff97 970240b9 000000b0  ..........@.....
 80f80 00c01191 e9feff97 e003172a fffeff97  ...........*....
 80f90 e00313aa e5feff97 20008052 a0f205b9  ........ ..R....
 80fa0 0effff97 2fffff97 8afeff97 81feff97  ..../...........
 80fb0 f703002a 000000b0 00201291 dbfeff97  ...*..... ......
 80fc0 e003172a f1feff97 e00313aa d7feff97  ...*............
 80fd0 d60240b9 000000b0 00a01291 d3feff97  ..@.............
 80fe0 e003162a e9feff97 e00313aa cffeff97  ...*............
 80ff0 940240b9 000000b0 00201391 cbfeff97  ..@...... ......
 81000 e003142a e1feff97 e00313aa c7feff97  ...*............
 81010 00000090 00801391 c4feff97 820080d2  ................
 81020 831280d2 02e4a7f2 03e4a7f2 c1128052  ...............R
 81030 400040b9 00700812 00000b32 400000b9  @.@..p.....2@...
 81040 7f0000b9 1f2003d5 21040071 c1ffff54  ..... ..!..q...T
 81050 011380d2 4200a052 01e4a7f2 c0128052  ....B..R.......R
 81060 220000b9 1f2003d5 00040071 c1ffff54  ".... .....q...T
 81070 001380d2 020180d2 00e4a7f2 02e4a7f2  ................
 81080 831280d2 c1128052 1f0000b9 03e4a7f2  .......R........
 81090 400040b9 00700812 00000b32 400000b9  @.@..p.....2@...
 810a0 7f0000b9 1f2003d5 21040071 c1ffff54  ..... ..!..q...T
 810b0 011380d2 0200a152 01e4a7f2 c0128052  .......R.......R
 810c0 220000b9 1f2003d5 00040071 c1ffff54  ".... .....q...T
 810d0 001380d2 020180d2 00e4a7f2 02e4a7f2  ................
 810e0 831280d2 c1128052 1f0000b9 03e4a7f2  .......R........
 810f0 400040b9 00701712 00001a32 400000b9  @.@..p.....2@...
 81100 7f0000b9 1f2003d5 21040071 c1ffff54  ..... ..!..q...T
 81110 011380d2 0208a052 01e4a7f2 c0128052  .......R.......R
 81120 220000b9 1f2003d5 00040071 c1ffff54  ".... .....q...T
 81130 001380d2 930380d2 00e4a7f2 180580d2  ................
 81140 b5c21791 19000090 14000090 17000090  ................
 81150 16000090 13e4a7f2 18e4a7f2 1f0000b9  ................
 81160 a00240b9 3c231491 9b821491 5a00a052  ..@.<#......Z..R
 81170 1f040071 60050054 1f080071 a1ffff54  ...q`..T...q...T
 81180 00000090 00401591 68feff97 c0021591  .....@..h.......
 81190 66feff97 0008a052 600200b9 4000a052  f......R`...@..R
 811a0 000300b9 0200a152 00ffbf12 020300b9  .......R........
 811b0 1f2003d5 00040071 c1ffff54 e0c21491  . .....q...T....
 811c0 5afeff97 0000a152 600200b9 4000a052  Z......R`...@..R
 811d0 000300b9 0208a052 00ffbf12 020300b9  .......R........
 811e0 1f2003d5 00040071 c1ffff54 80821491  . .....q...T....
 811f0 4efeff97 4000a052 600200b9 0008a052  N...@..R`......R
 81200 000300b9 0200a152 00ffbf12 020300b9  .......R........
 81210 1f2003d5 00040071 c1ffff54 d1ffff17  . .....q...T....
 81220 e0031caa 41feff97 e0031baa 3ffeff97  ....A.......?...
 81230 7a0200b9 0000a152 000300b9 0208a052  z......R.......R
 81240 00febf12 020300b9 1f2003d5 00040071  ......... .....q
 81250 c1ffff54 e0c21491 34feff97 0000a152  ...T....4......R
 81260 600200b9 1a0300b9 0208a052 00febf12  `..........R....
 81270 020300b9 1f2003d5 1f2003d5 00040071  ..... ... .....q
 81280 c1ffff54 c0021591 28feff97 0008a052  ...T....(......R
 81290 600200b9 1a0300b9 0200a152 00febf12  `..........R....
 812a0 020300b9 1f2003d5 1f2003d5 00040071  ..... ... .....q
 812b0 c1ffff54 a00240b9 b0ffff17 00000000  ...T..@.........
 812c0 fd7bbda9 00000090 00a01591 fd030091  .{..............
 812d0 f35301a9 144196d2 f55b02a9 13feff97  .S...A...[......
 812e0 aafdff97 f303002a 00000090 00201691  .......*..... ..
 812f0 0efeff97 14e0a7f2 e003132a 13000090  ...........*....
 81300 22feff97 73421091 e00313aa 07feff97  "...sB..........
 81310 150880d2 15e4a7f2 a6fdff97 f603002a  ...............*
 81320 00000090 00801691 00feff97 e003162a  ...............*
 81330 16feff97 e00313aa fcfdff97 960240b9  ..............@.
 81340 00000090 00e01691 f8fdff97 e003162a  ...............*
 81350 0efeff97 e00313aa f4fdff97 b60240b9  ..............@.
 81360 00000090 00601791 f0fdff97 e003162a  .....`.........*
 81370 06feff97 e00313aa ecfdff97 800240b9  ..............@.
 81380 1f004471 a0000054 f35341a9 f55b42a9  ..Dq...T.SA..[B.
 81390 fd7bc3a8 c0035fd6 a00240b9 0120a052  .{...._...@.. .R
 813a0 1f00016b a1000054 01000090 a00200b9  ...k...T........
 813b0 20008052 20f005b9 000880d2 00e4a7f2   ..R ...........
 813c0 010040b9 3f006071 01feff54 010000b9  ..@.?.`q...T....
 813d0 02000090 40008052 f35341a9 40f005b9  ....@..R.SA.@...
 813e0 f55b42a9 fd7bc3a8 c0035fd6           .[B..{...._.    
Contents of section .rodata:
 813f0 43757272 656e7420 65786365 7074696f  Current exceptio
 81400 6e206c65 76656c20 69733a20 20307800  n level is:  0x.
 81410 0a000000 00000000 53505365 6c206973  ........SPSel is
 81420 3a202030 78000000 496e6974 69616c20  :  0x...Initial 
 81430 44414946 20666c61 67732061 72653a20  DAIF flags are: 
 81440 20307800 00000000 496e6974 69616c20   0x.....Initial 
 81450 4952515f 454e4142 4c455f49 5251535f  IRQ_ENABLE_IRQS_
 81460 32206973 3a202030 78000000 00000000  2 is:  0x.......
 81470 496e6974 69616c20 47505245 4e302069  Initial GPREN0 i
 81480 733a2020 30780000 0a4e6577 20444149  s:  0x...New DAI
 81490 4620666c 61677320 6172653a 20203078  F flags are:  0x
 814a0 00000000 00000000 4e657720 4952515f  ........New IRQ_
 814b0 454e4142 4c455f49 5251535f 32206973  ENABLE_IRQS_2 is
 814c0 3a202030 78000000 4e657720 47505245  :  0x...New GPRE
 814d0 4e302069 733a2020 30780000 00000000  N0 is:  0x......
 814e0 0a526973 696e6720 45646765 20495251  .Rising Edge IRQ
 814f0 2070726f 6772616d 20737461 7274696e   program startin
 81500 672e0a00 00000000 0a204954 20495320  g........ IT IS 
 81510 494e2053 54415445 20312020 00000000  IN STATE 1  ....
 81520 0a204c45 44312020 00000000 00000000  . LED1  ........
 81530 0a204c45 44322020 00000000 00000000  . LED2  ........
 81540 0a204c45 44332020 00000000 00000000  . LED3  ........
 81550 0a204954 20495320 494e2053 54415445  . IT IS IN STATE
 81560 20322020 00000000 0a496e73 69646520   2  .....Inside 
 81570 49525120 65786365 7074696f 6e206861  IRQ exception ha
 81580 6e646c65 723a0a00 20202020 43757272  ndler:..    Curr
 81590 656e7445 4c206973 3a202030 78000000  entEL is:  0x...
 815a0 20202020 44414946 2069733a 20203078      DAIF is:  0x
 815b0 00000000 00000000 20202020 4952515f  ........    IRQ_
 815c0 50454e44 494e475f 32206973 3a202030  PENDING_2 is:  0
 815d0 78000000 00000000 20202020 47504544  x.......    GPED
 815e0 53302069 733a2020 30780000 00000000  S0 is:  0x......

Disassembly of section .text:

0000000000080000 <_start>:
   80000:	d53800a1 	mrs	x1, mpidr_el1
   80004:	f240043f 	tst	x1, #0x3
   80008:	54000060 	b.eq	80014 <core_zero>  // b.none

000000000008000c <loop>:
   8000c:	d503205f 	wfe
   80010:	17ffffff 	b	8000c <loop>

0000000000080014 <core_zero>:
   80014:	90000001 	adrp	x1, 80000 <_start>
   80018:	91000021 	add	x1, x1, #0x0
   8001c:	d51c4101 	msr	sp_el1, x1
   80020:	d2b00000 	mov	x0, #0x80000000            	// #2147483648
   80024:	b27f0000 	orr	x0, x0, #0x2
   80028:	d51c1100 	msr	hcr_el2, x0
   8002c:	90000002 	adrp	x2, 80000 <_start>
   80030:	91200042 	add	x2, x2, #0x800
   80034:	d518c002 	msr	vbar_el1, x2
   80038:	d2807882 	mov	x2, #0x3c4                 	// #964
   8003c:	d51c4002 	msr	spsr_el2, x2
   80040:	10000062 	adr	x2, 8004c <AtEL1>
   80044:	d51c4022 	msr	elr_el2, x2
   80048:	d69f03e0 	eret

000000000008004c <AtEL1>:
   8004c:	9100003f 	mov	sp, x1
   80050:	b0000001 	adrp	x1, 81000 <main+0x150>
   80054:	9117c021 	add	x1, x1, #0x5f0
   80058:	18004962 	ldr	w2, 80984 <_vectors+0x184>

000000000008005c <top>:
   8005c:	34000082 	cbz	w2, 8006c <endloop>
   80060:	f800843f 	str	xzr, [x1], #8
   80064:	51000442 	sub	w2, w2, #0x1
   80068:	35ffffa2 	cbnz	w2, 8005c <top>

000000000008006c <endloop>:
   8006c:	94000391 	bl	80eb0 <main>
   80070:	17ffffe7 	b	8000c <loop>

0000000000080074 <_synch_handler>:
   80074:	d69f03e0 	eret

0000000000080078 <_IRQ_handler>:
   80078:	a9bf07e0 	stp	x0, x1, [sp, #-16]!
   8007c:	a9bf0fe2 	stp	x2, x3, [sp, #-16]!
   80080:	a9bf17e4 	stp	x4, x5, [sp, #-16]!
   80084:	a9bf1fe6 	stp	x6, x7, [sp, #-16]!
   80088:	a9bf27e8 	stp	x8, x9, [sp, #-16]!
   8008c:	a9bf2fea 	stp	x10, x11, [sp, #-16]!
   80090:	a9bf37ec 	stp	x12, x13, [sp, #-16]!
   80094:	a9bf3fee 	stp	x14, x15, [sp, #-16]!
   80098:	a9bf47f0 	stp	x16, x17, [sp, #-16]!
   8009c:	a9bf4ff2 	stp	x18, x19, [sp, #-16]!
   800a0:	a9bf57f4 	stp	x20, x21, [sp, #-16]!
   800a4:	a9bf5ff6 	stp	x22, x23, [sp, #-16]!
   800a8:	a9bf67f8 	stp	x24, x25, [sp, #-16]!
   800ac:	a9bf6ffa 	stp	x26, x27, [sp, #-16]!
   800b0:	a9bf77fc 	stp	x28, x29, [sp, #-16]!
   800b4:	f81f0ffe 	str	x30, [sp, #-16]!
   800b8:	94000482 	bl	812c0 <IRQ_handler>
   800bc:	f84107fe 	ldr	x30, [sp], #16
   800c0:	a8c177fc 	ldp	x28, x29, [sp], #16
   800c4:	a8c16ffa 	ldp	x26, x27, [sp], #16
   800c8:	a8c167f8 	ldp	x24, x25, [sp], #16
   800cc:	a8c15ff6 	ldp	x22, x23, [sp], #16
   800d0:	a8c157f4 	ldp	x20, x21, [sp], #16
   800d4:	a8c14ff2 	ldp	x18, x19, [sp], #16
   800d8:	a8c147f0 	ldp	x16, x17, [sp], #16
   800dc:	a8c13fee 	ldp	x14, x15, [sp], #16
   800e0:	a8c137ec 	ldp	x12, x13, [sp], #16
   800e4:	a8c12fea 	ldp	x10, x11, [sp], #16
   800e8:	a8c127e8 	ldp	x8, x9, [sp], #16
   800ec:	a8c11fe6 	ldp	x6, x7, [sp], #16
   800f0:	a8c117e4 	ldp	x4, x5, [sp], #16
   800f4:	a8c10fe2 	ldp	x2, x3, [sp], #16
   800f8:	a8c107e0 	ldp	x0, x1, [sp], #16
   800fc:	d69f03e0 	eret

0000000000080100 <_FIQ_handler>:
   80100:	d69f03e0 	eret

0000000000080104 <_SError_handler>:
   80104:	d69f03e0 	eret
   80108:	d503201f 	nop
   8010c:	d503201f 	nop
   80110:	d503201f 	nop
   80114:	d503201f 	nop
   80118:	d503201f 	nop
   8011c:	d503201f 	nop
   80120:	d503201f 	nop
   80124:	d503201f 	nop
   80128:	d503201f 	nop
   8012c:	d503201f 	nop
   80130:	d503201f 	nop
   80134:	d503201f 	nop
   80138:	d503201f 	nop
   8013c:	d503201f 	nop
   80140:	d503201f 	nop
   80144:	d503201f 	nop
   80148:	d503201f 	nop
   8014c:	d503201f 	nop
   80150:	d503201f 	nop
   80154:	d503201f 	nop
   80158:	d503201f 	nop
   8015c:	d503201f 	nop
   80160:	d503201f 	nop
   80164:	d503201f 	nop
   80168:	d503201f 	nop
   8016c:	d503201f 	nop
   80170:	d503201f 	nop
   80174:	d503201f 	nop
   80178:	d503201f 	nop
   8017c:	d503201f 	nop
   80180:	d503201f 	nop
   80184:	d503201f 	nop
   80188:	d503201f 	nop
   8018c:	d503201f 	nop
   80190:	d503201f 	nop
   80194:	d503201f 	nop
   80198:	d503201f 	nop
   8019c:	d503201f 	nop
   801a0:	d503201f 	nop
   801a4:	d503201f 	nop
   801a8:	d503201f 	nop
   801ac:	d503201f 	nop
   801b0:	d503201f 	nop
   801b4:	d503201f 	nop
   801b8:	d503201f 	nop
   801bc:	d503201f 	nop
   801c0:	d503201f 	nop
   801c4:	d503201f 	nop
   801c8:	d503201f 	nop
   801cc:	d503201f 	nop
   801d0:	d503201f 	nop
   801d4:	d503201f 	nop
   801d8:	d503201f 	nop
   801dc:	d503201f 	nop
   801e0:	d503201f 	nop
   801e4:	d503201f 	nop
   801e8:	d503201f 	nop
   801ec:	d503201f 	nop
   801f0:	d503201f 	nop
   801f4:	d503201f 	nop
   801f8:	d503201f 	nop
   801fc:	d503201f 	nop
   80200:	d503201f 	nop
   80204:	d503201f 	nop
   80208:	d503201f 	nop
   8020c:	d503201f 	nop
   80210:	d503201f 	nop
   80214:	d503201f 	nop
   80218:	d503201f 	nop
   8021c:	d503201f 	nop
   80220:	d503201f 	nop
   80224:	d503201f 	nop
   80228:	d503201f 	nop
   8022c:	d503201f 	nop
   80230:	d503201f 	nop
   80234:	d503201f 	nop
   80238:	d503201f 	nop
   8023c:	d503201f 	nop
   80240:	d503201f 	nop
   80244:	d503201f 	nop
   80248:	d503201f 	nop
   8024c:	d503201f 	nop
   80250:	d503201f 	nop
   80254:	d503201f 	nop
   80258:	d503201f 	nop
   8025c:	d503201f 	nop
   80260:	d503201f 	nop
   80264:	d503201f 	nop
   80268:	d503201f 	nop
   8026c:	d503201f 	nop
   80270:	d503201f 	nop
   80274:	d503201f 	nop
   80278:	d503201f 	nop
   8027c:	d503201f 	nop
   80280:	d503201f 	nop
   80284:	d503201f 	nop
   80288:	d503201f 	nop
   8028c:	d503201f 	nop
   80290:	d503201f 	nop
   80294:	d503201f 	nop
   80298:	d503201f 	nop
   8029c:	d503201f 	nop
   802a0:	d503201f 	nop
   802a4:	d503201f 	nop
   802a8:	d503201f 	nop
   802ac:	d503201f 	nop
   802b0:	d503201f 	nop
   802b4:	d503201f 	nop
   802b8:	d503201f 	nop
   802bc:	d503201f 	nop
   802c0:	d503201f 	nop
   802c4:	d503201f 	nop
   802c8:	d503201f 	nop
   802cc:	d503201f 	nop
   802d0:	d503201f 	nop
   802d4:	d503201f 	nop
   802d8:	d503201f 	nop
   802dc:	d503201f 	nop
   802e0:	d503201f 	nop
   802e4:	d503201f 	nop
   802e8:	d503201f 	nop
   802ec:	d503201f 	nop
   802f0:	d503201f 	nop
   802f4:	d503201f 	nop
   802f8:	d503201f 	nop
   802fc:	d503201f 	nop
   80300:	d503201f 	nop
   80304:	d503201f 	nop
   80308:	d503201f 	nop
   8030c:	d503201f 	nop
   80310:	d503201f 	nop
   80314:	d503201f 	nop
   80318:	d503201f 	nop
   8031c:	d503201f 	nop
   80320:	d503201f 	nop
   80324:	d503201f 	nop
   80328:	d503201f 	nop
   8032c:	d503201f 	nop
   80330:	d503201f 	nop
   80334:	d503201f 	nop
   80338:	d503201f 	nop
   8033c:	d503201f 	nop
   80340:	d503201f 	nop
   80344:	d503201f 	nop
   80348:	d503201f 	nop
   8034c:	d503201f 	nop
   80350:	d503201f 	nop
   80354:	d503201f 	nop
   80358:	d503201f 	nop
   8035c:	d503201f 	nop
   80360:	d503201f 	nop
   80364:	d503201f 	nop
   80368:	d503201f 	nop
   8036c:	d503201f 	nop
   80370:	d503201f 	nop
   80374:	d503201f 	nop
   80378:	d503201f 	nop
   8037c:	d503201f 	nop
   80380:	d503201f 	nop
   80384:	d503201f 	nop
   80388:	d503201f 	nop
   8038c:	d503201f 	nop
   80390:	d503201f 	nop
   80394:	d503201f 	nop
   80398:	d503201f 	nop
   8039c:	d503201f 	nop
   803a0:	d503201f 	nop
   803a4:	d503201f 	nop
   803a8:	d503201f 	nop
   803ac:	d503201f 	nop
   803b0:	d503201f 	nop
   803b4:	d503201f 	nop
   803b8:	d503201f 	nop
   803bc:	d503201f 	nop
   803c0:	d503201f 	nop
   803c4:	d503201f 	nop
   803c8:	d503201f 	nop
   803cc:	d503201f 	nop
   803d0:	d503201f 	nop
   803d4:	d503201f 	nop
   803d8:	d503201f 	nop
   803dc:	d503201f 	nop
   803e0:	d503201f 	nop
   803e4:	d503201f 	nop
   803e8:	d503201f 	nop
   803ec:	d503201f 	nop
   803f0:	d503201f 	nop
   803f4:	d503201f 	nop
   803f8:	d503201f 	nop
   803fc:	d503201f 	nop
   80400:	d503201f 	nop
   80404:	d503201f 	nop
   80408:	d503201f 	nop
   8040c:	d503201f 	nop
   80410:	d503201f 	nop
   80414:	d503201f 	nop
   80418:	d503201f 	nop
   8041c:	d503201f 	nop
   80420:	d503201f 	nop
   80424:	d503201f 	nop
   80428:	d503201f 	nop
   8042c:	d503201f 	nop
   80430:	d503201f 	nop
   80434:	d503201f 	nop
   80438:	d503201f 	nop
   8043c:	d503201f 	nop
   80440:	d503201f 	nop
   80444:	d503201f 	nop
   80448:	d503201f 	nop
   8044c:	d503201f 	nop
   80450:	d503201f 	nop
   80454:	d503201f 	nop
   80458:	d503201f 	nop
   8045c:	d503201f 	nop
   80460:	d503201f 	nop
   80464:	d503201f 	nop
   80468:	d503201f 	nop
   8046c:	d503201f 	nop
   80470:	d503201f 	nop
   80474:	d503201f 	nop
   80478:	d503201f 	nop
   8047c:	d503201f 	nop
   80480:	d503201f 	nop
   80484:	d503201f 	nop
   80488:	d503201f 	nop
   8048c:	d503201f 	nop
   80490:	d503201f 	nop
   80494:	d503201f 	nop
   80498:	d503201f 	nop
   8049c:	d503201f 	nop
   804a0:	d503201f 	nop
   804a4:	d503201f 	nop
   804a8:	d503201f 	nop
   804ac:	d503201f 	nop
   804b0:	d503201f 	nop
   804b4:	d503201f 	nop
   804b8:	d503201f 	nop
   804bc:	d503201f 	nop
   804c0:	d503201f 	nop
   804c4:	d503201f 	nop
   804c8:	d503201f 	nop
   804cc:	d503201f 	nop
   804d0:	d503201f 	nop
   804d4:	d503201f 	nop
   804d8:	d503201f 	nop
   804dc:	d503201f 	nop
   804e0:	d503201f 	nop
   804e4:	d503201f 	nop
   804e8:	d503201f 	nop
   804ec:	d503201f 	nop
   804f0:	d503201f 	nop
   804f4:	d503201f 	nop
   804f8:	d503201f 	nop
   804fc:	d503201f 	nop
   80500:	d503201f 	nop
   80504:	d503201f 	nop
   80508:	d503201f 	nop
   8050c:	d503201f 	nop
   80510:	d503201f 	nop
   80514:	d503201f 	nop
   80518:	d503201f 	nop
   8051c:	d503201f 	nop
   80520:	d503201f 	nop
   80524:	d503201f 	nop
   80528:	d503201f 	nop
   8052c:	d503201f 	nop
   80530:	d503201f 	nop
   80534:	d503201f 	nop
   80538:	d503201f 	nop
   8053c:	d503201f 	nop
   80540:	d503201f 	nop
   80544:	d503201f 	nop
   80548:	d503201f 	nop
   8054c:	d503201f 	nop
   80550:	d503201f 	nop
   80554:	d503201f 	nop
   80558:	d503201f 	nop
   8055c:	d503201f 	nop
   80560:	d503201f 	nop
   80564:	d503201f 	nop
   80568:	d503201f 	nop
   8056c:	d503201f 	nop
   80570:	d503201f 	nop
   80574:	d503201f 	nop
   80578:	d503201f 	nop
   8057c:	d503201f 	nop
   80580:	d503201f 	nop
   80584:	d503201f 	nop
   80588:	d503201f 	nop
   8058c:	d503201f 	nop
   80590:	d503201f 	nop
   80594:	d503201f 	nop
   80598:	d503201f 	nop
   8059c:	d503201f 	nop
   805a0:	d503201f 	nop
   805a4:	d503201f 	nop
   805a8:	d503201f 	nop
   805ac:	d503201f 	nop
   805b0:	d503201f 	nop
   805b4:	d503201f 	nop
   805b8:	d503201f 	nop
   805bc:	d503201f 	nop
   805c0:	d503201f 	nop
   805c4:	d503201f 	nop
   805c8:	d503201f 	nop
   805cc:	d503201f 	nop
   805d0:	d503201f 	nop
   805d4:	d503201f 	nop
   805d8:	d503201f 	nop
   805dc:	d503201f 	nop
   805e0:	d503201f 	nop
   805e4:	d503201f 	nop
   805e8:	d503201f 	nop
   805ec:	d503201f 	nop
   805f0:	d503201f 	nop
   805f4:	d503201f 	nop
   805f8:	d503201f 	nop
   805fc:	d503201f 	nop
   80600:	d503201f 	nop
   80604:	d503201f 	nop
   80608:	d503201f 	nop
   8060c:	d503201f 	nop
   80610:	d503201f 	nop
   80614:	d503201f 	nop
   80618:	d503201f 	nop
   8061c:	d503201f 	nop
   80620:	d503201f 	nop
   80624:	d503201f 	nop
   80628:	d503201f 	nop
   8062c:	d503201f 	nop
   80630:	d503201f 	nop
   80634:	d503201f 	nop
   80638:	d503201f 	nop
   8063c:	d503201f 	nop
   80640:	d503201f 	nop
   80644:	d503201f 	nop
   80648:	d503201f 	nop
   8064c:	d503201f 	nop
   80650:	d503201f 	nop
   80654:	d503201f 	nop
   80658:	d503201f 	nop
   8065c:	d503201f 	nop
   80660:	d503201f 	nop
   80664:	d503201f 	nop
   80668:	d503201f 	nop
   8066c:	d503201f 	nop
   80670:	d503201f 	nop
   80674:	d503201f 	nop
   80678:	d503201f 	nop
   8067c:	d503201f 	nop
   80680:	d503201f 	nop
   80684:	d503201f 	nop
   80688:	d503201f 	nop
   8068c:	d503201f 	nop
   80690:	d503201f 	nop
   80694:	d503201f 	nop
   80698:	d503201f 	nop
   8069c:	d503201f 	nop
   806a0:	d503201f 	nop
   806a4:	d503201f 	nop
   806a8:	d503201f 	nop
   806ac:	d503201f 	nop
   806b0:	d503201f 	nop
   806b4:	d503201f 	nop
   806b8:	d503201f 	nop
   806bc:	d503201f 	nop
   806c0:	d503201f 	nop
   806c4:	d503201f 	nop
   806c8:	d503201f 	nop
   806cc:	d503201f 	nop
   806d0:	d503201f 	nop
   806d4:	d503201f 	nop
   806d8:	d503201f 	nop
   806dc:	d503201f 	nop
   806e0:	d503201f 	nop
   806e4:	d503201f 	nop
   806e8:	d503201f 	nop
   806ec:	d503201f 	nop
   806f0:	d503201f 	nop
   806f4:	d503201f 	nop
   806f8:	d503201f 	nop
   806fc:	d503201f 	nop
   80700:	d503201f 	nop
   80704:	d503201f 	nop
   80708:	d503201f 	nop
   8070c:	d503201f 	nop
   80710:	d503201f 	nop
   80714:	d503201f 	nop
   80718:	d503201f 	nop
   8071c:	d503201f 	nop
   80720:	d503201f 	nop
   80724:	d503201f 	nop
   80728:	d503201f 	nop
   8072c:	d503201f 	nop
   80730:	d503201f 	nop
   80734:	d503201f 	nop
   80738:	d503201f 	nop
   8073c:	d503201f 	nop
   80740:	d503201f 	nop
   80744:	d503201f 	nop
   80748:	d503201f 	nop
   8074c:	d503201f 	nop
   80750:	d503201f 	nop
   80754:	d503201f 	nop
   80758:	d503201f 	nop
   8075c:	d503201f 	nop
   80760:	d503201f 	nop
   80764:	d503201f 	nop
   80768:	d503201f 	nop
   8076c:	d503201f 	nop
   80770:	d503201f 	nop
   80774:	d503201f 	nop
   80778:	d503201f 	nop
   8077c:	d503201f 	nop
   80780:	d503201f 	nop
   80784:	d503201f 	nop
   80788:	d503201f 	nop
   8078c:	d503201f 	nop
   80790:	d503201f 	nop
   80794:	d503201f 	nop
   80798:	d503201f 	nop
   8079c:	d503201f 	nop
   807a0:	d503201f 	nop
   807a4:	d503201f 	nop
   807a8:	d503201f 	nop
   807ac:	d503201f 	nop
   807b0:	d503201f 	nop
   807b4:	d503201f 	nop
   807b8:	d503201f 	nop
   807bc:	d503201f 	nop
   807c0:	d503201f 	nop
   807c4:	d503201f 	nop
   807c8:	d503201f 	nop
   807cc:	d503201f 	nop
   807d0:	d503201f 	nop
   807d4:	d503201f 	nop
   807d8:	d503201f 	nop
   807dc:	d503201f 	nop
   807e0:	d503201f 	nop
   807e4:	d503201f 	nop
   807e8:	d503201f 	nop
   807ec:	d503201f 	nop
   807f0:	d503201f 	nop
   807f4:	d503201f 	nop
   807f8:	d503201f 	nop
   807fc:	d503201f 	nop

0000000000080800 <_vectors>:
   80800:	17fffe1d 	b	80074 <_synch_handler>
   80804:	d503201f 	nop
   80808:	d503201f 	nop
   8080c:	d503201f 	nop
   80810:	d503201f 	nop
   80814:	d503201f 	nop
   80818:	d503201f 	nop
   8081c:	d503201f 	nop
   80820:	d503201f 	nop
   80824:	d503201f 	nop
   80828:	d503201f 	nop
   8082c:	d503201f 	nop
   80830:	d503201f 	nop
   80834:	d503201f 	nop
   80838:	d503201f 	nop
   8083c:	d503201f 	nop
   80840:	d503201f 	nop
   80844:	d503201f 	nop
   80848:	d503201f 	nop
   8084c:	d503201f 	nop
   80850:	d503201f 	nop
   80854:	d503201f 	nop
   80858:	d503201f 	nop
   8085c:	d503201f 	nop
   80860:	d503201f 	nop
   80864:	d503201f 	nop
   80868:	d503201f 	nop
   8086c:	d503201f 	nop
   80870:	d503201f 	nop
   80874:	d503201f 	nop
   80878:	d503201f 	nop
   8087c:	d503201f 	nop
   80880:	17fffdfe 	b	80078 <_IRQ_handler>
   80884:	d503201f 	nop
   80888:	d503201f 	nop
   8088c:	d503201f 	nop
   80890:	d503201f 	nop
   80894:	d503201f 	nop
   80898:	d503201f 	nop
   8089c:	d503201f 	nop
   808a0:	d503201f 	nop
   808a4:	d503201f 	nop
   808a8:	d503201f 	nop
   808ac:	d503201f 	nop
   808b0:	d503201f 	nop
   808b4:	d503201f 	nop
   808b8:	d503201f 	nop
   808bc:	d503201f 	nop
   808c0:	d503201f 	nop
   808c4:	d503201f 	nop
   808c8:	d503201f 	nop
   808cc:	d503201f 	nop
   808d0:	d503201f 	nop
   808d4:	d503201f 	nop
   808d8:	d503201f 	nop
   808dc:	d503201f 	nop
   808e0:	d503201f 	nop
   808e4:	d503201f 	nop
   808e8:	d503201f 	nop
   808ec:	d503201f 	nop
   808f0:	d503201f 	nop
   808f4:	d503201f 	nop
   808f8:	d503201f 	nop
   808fc:	d503201f 	nop
   80900:	17fffe00 	b	80100 <_FIQ_handler>
   80904:	d503201f 	nop
   80908:	d503201f 	nop
   8090c:	d503201f 	nop
   80910:	d503201f 	nop
   80914:	d503201f 	nop
   80918:	d503201f 	nop
   8091c:	d503201f 	nop
   80920:	d503201f 	nop
   80924:	d503201f 	nop
   80928:	d503201f 	nop
   8092c:	d503201f 	nop
   80930:	d503201f 	nop
   80934:	d503201f 	nop
   80938:	d503201f 	nop
   8093c:	d503201f 	nop
   80940:	d503201f 	nop
   80944:	d503201f 	nop
   80948:	d503201f 	nop
   8094c:	d503201f 	nop
   80950:	d503201f 	nop
   80954:	d503201f 	nop
   80958:	d503201f 	nop
   8095c:	d503201f 	nop
   80960:	d503201f 	nop
   80964:	d503201f 	nop
   80968:	d503201f 	nop
   8096c:	d503201f 	nop
   80970:	d503201f 	nop
   80974:	d503201f 	nop
   80978:	d503201f 	nop
   8097c:	d503201f 	nop
   80980:	17fffde1 	b	80104 <_SError_handler>
   80984:	00000000 	.word	0x00000000

0000000000080988 <getCurrentEL>:
   80988:	d5384240 	mrs	x0, currentel
   8098c:	d342fc00 	lsr	x0, x0, #2
   80990:	92400400 	and	x0, x0, #0x3
   80994:	d65f03c0 	ret

0000000000080998 <getSPSel>:
   80998:	d5384200 	mrs	x0, spsel
   8099c:	d65f03c0 	ret

00000000000809a0 <getNZCV>:
   809a0:	d53b4200 	mrs	x0, nzcv
   809a4:	d35cfc00 	lsr	x0, x0, #28
   809a8:	92400c00 	and	x0, x0, #0xf
   809ac:	d65f03c0 	ret

00000000000809b0 <getDAIF>:
   809b0:	d53b4220 	mrs	x0, daif
   809b4:	d346fc00 	lsr	x0, x0, #6
   809b8:	92400c00 	and	x0, x0, #0xf
   809bc:	d65f03c0 	ret

00000000000809c0 <enableDAIF>:
   809c0:	d5034fff 	msr	daifclr, #0xf
   809c4:	d65f03c0 	ret

00000000000809c8 <disableDAIF>:
   809c8:	d5034fdf 	msr	daifset, #0xf
   809cc:	d65f03c0 	ret

00000000000809d0 <enableIRQ>:
   809d0:	d50342ff 	msr	daifclr, #0x2
   809d4:	d65f03c0 	ret

00000000000809d8 <disableIRQ>:
   809d8:	d50342df 	msr	daifset, #0x2
   809dc:	d65f03c0 	ret

00000000000809e0 <enableFIQ>:
   809e0:	d50341ff 	msr	daifclr, #0x1
   809e4:	d65f03c0 	ret

00000000000809e8 <disableFIQ>:
   809e8:	d50341df 	msr	daifset, #0x1
   809ec:	d65f03c0 	ret

00000000000809f0 <uart_init>:
   809f0:	d2800082 	mov	x2, #0x4                   	// #4
   809f4:	d2801283 	mov	x3, #0x94                  	// #148
   809f8:	f2a7e402 	movk	x2, #0x3f20, lsl #16
   809fc:	f2a7e403 	movk	x3, #0x3f20, lsl #16
   80a00:	52840004 	mov	w4, #0x2000                	// #8192
   80a04:	528012c0 	mov	w0, #0x96                  	// #150
   80a08:	b9400041 	ldr	w1, [x2]
   80a0c:	72a00024 	movk	w4, #0x1, lsl #16
   80a10:	120e6421 	and	w1, w1, #0xfffc0fff
   80a14:	2a040021 	orr	w1, w1, w4
   80a18:	b9000041 	str	w1, [x2]
   80a1c:	b900007f 	str	wzr, [x3]
   80a20:	d503201f 	nop
   80a24:	71000400 	subs	w0, w0, #0x1
   80a28:	54ffffc1 	b.ne	80a20 <uart_init+0x30>  // b.any
   80a2c:	d2801301 	mov	x1, #0x98                  	// #152
   80a30:	52980002 	mov	w2, #0xc000                	// #49152
   80a34:	f2a7e401 	movk	x1, #0x3f20, lsl #16
   80a38:	528012c0 	mov	w0, #0x96                  	// #150
   80a3c:	b9000022 	str	w2, [x1]
   80a40:	d503201f 	nop
   80a44:	71000400 	subs	w0, w0, #0x1
   80a48:	54ffffc1 	b.ne	80a40 <uart_init+0x50>  // b.any
   80a4c:	d2801300 	mov	x0, #0x98                  	// #152
   80a50:	d28a0083 	mov	x3, #0x5004                	// #20484
   80a54:	f2a7e400 	movk	x0, #0x3f20, lsl #16
   80a58:	f2a7e423 	movk	x3, #0x3f21, lsl #16
   80a5c:	d28a0889 	mov	x9, #0x5044                	// #20548
   80a60:	d28a0c01 	mov	x1, #0x5060                	// #20576
   80a64:	b900001f 	str	wzr, [x0]
   80a68:	f2a7e429 	movk	x9, #0x3f21, lsl #16
   80a6c:	f2a7e421 	movk	x1, #0x3f21, lsl #16
   80a70:	d28a0988 	mov	x8, #0x504c                	// #20556
   80a74:	b9400060 	ldr	w0, [x3]
   80a78:	f2a7e428 	movk	x8, #0x3f21, lsl #16
   80a7c:	d28a0a07 	mov	x7, #0x5050                	// #20560
   80a80:	d28a0905 	mov	x5, #0x5048                	// #20552
   80a84:	32000000 	orr	w0, w0, #0x1
   80a88:	b9000060 	str	w0, [x3]
   80a8c:	b900013f 	str	wzr, [x9]
   80a90:	f2a7e427 	movk	x7, #0x3f21, lsl #16
   80a94:	b900003f 	str	wzr, [x1]
   80a98:	52800062 	mov	w2, #0x3                   	// #3
   80a9c:	f2a7e425 	movk	x5, #0x3f21, lsl #16
   80aa0:	b9000102 	str	w2, [x8]
   80aa4:	d28a0d04 	mov	x4, #0x5068                	// #20584
   80aa8:	b90000ff 	str	wzr, [x7]
   80aac:	f2a7e424 	movk	x4, #0x3f21, lsl #16
   80ab0:	528018c6 	mov	w6, #0xc6                  	// #198
   80ab4:	b90000a6 	str	w6, [x5]
   80ab8:	528021c0 	mov	w0, #0x10e                 	// #270
   80abc:	b9000080 	str	w0, [x4]
   80ac0:	b9000022 	str	w2, [x1]
   80ac4:	d65f03c0 	ret

0000000000080ac8 <uart_putc>:
   80ac8:	d28a0a82 	mov	x2, #0x5054                	// #20564
   80acc:	f2a7e422 	movk	x2, #0x3f21, lsl #16
   80ad0:	d503201f 	nop
   80ad4:	b9400041 	ldr	w1, [x2]
   80ad8:	362fffc1 	tbz	w1, #5, 80ad0 <uart_putc+0x8>
   80adc:	d28a0801 	mov	x1, #0x5040                	// #20544
   80ae0:	f2a7e421 	movk	x1, #0x3f21, lsl #16
   80ae4:	b9000020 	str	w0, [x1]
   80ae8:	d65f03c0 	ret
   80aec:	d503201f 	nop

0000000000080af0 <uart_getc>:
   80af0:	d28a0a81 	mov	x1, #0x5054                	// #20564
   80af4:	f2a7e421 	movk	x1, #0x3f21, lsl #16
   80af8:	d503201f 	nop
   80afc:	b9400020 	ldr	w0, [x1]
   80b00:	3607ffc0 	tbz	w0, #0, 80af8 <uart_getc+0x8>
   80b04:	d28a0800 	mov	x0, #0x5040                	// #20544
   80b08:	52800141 	mov	w1, #0xa                   	// #10
   80b0c:	f2a7e420 	movk	x0, #0x3f21, lsl #16
   80b10:	b9400000 	ldr	w0, [x0]
   80b14:	12001c00 	and	w0, w0, #0xff
   80b18:	7100341f 	cmp	w0, #0xd
   80b1c:	1a811000 	csel	w0, w0, w1, ne  // ne = any
   80b20:	d65f03c0 	ret
   80b24:	d503201f 	nop

0000000000080b28 <uart_puts>:
   80b28:	39400001 	ldrb	w1, [x0]
   80b2c:	34000221 	cbz	w1, 80b70 <uart_puts+0x48>
   80b30:	d28a0a82 	mov	x2, #0x5054                	// #20564
   80b34:	d28a0804 	mov	x4, #0x5040                	// #20544
   80b38:	f2a7e422 	movk	x2, #0x3f21, lsl #16
   80b3c:	f2a7e424 	movk	x4, #0x3f21, lsl #16
   80b40:	528001a5 	mov	w5, #0xd                   	// #13
   80b44:	d503201f 	nop
   80b48:	7100283f 	cmp	w1, #0xa
   80b4c:	54000140 	b.eq	80b74 <uart_puts+0x4c>  // b.none
   80b50:	38401403 	ldrb	w3, [x0], #1
   80b54:	d503201f 	nop
   80b58:	d503201f 	nop
   80b5c:	b9400041 	ldr	w1, [x2]
   80b60:	362fffc1 	tbz	w1, #5, 80b58 <uart_puts+0x30>
   80b64:	b9000083 	str	w3, [x4]
   80b68:	39400001 	ldrb	w1, [x0]
   80b6c:	35fffee1 	cbnz	w1, 80b48 <uart_puts+0x20>
   80b70:	d65f03c0 	ret
   80b74:	d503201f 	nop
   80b78:	b9400041 	ldr	w1, [x2]
   80b7c:	362fffc1 	tbz	w1, #5, 80b74 <uart_puts+0x4c>
   80b80:	b9000085 	str	w5, [x4]
   80b84:	17fffff3 	b	80b50 <uart_puts+0x28>

0000000000080b88 <uart_puthex>:
   80b88:	d28a0a82 	mov	x2, #0x5054                	// #20564
   80b8c:	d28a0806 	mov	x6, #0x5040                	// #20544
   80b90:	52800383 	mov	w3, #0x1c                  	// #28
   80b94:	f2a7e422 	movk	x2, #0x3f21, lsl #16
   80b98:	f2a7e426 	movk	x6, #0x3f21, lsl #16
   80b9c:	d503201f 	nop
   80ba0:	1ac32401 	lsr	w1, w0, w3
   80ba4:	12000c21 	and	w1, w1, #0xf
   80ba8:	1100dc25 	add	w5, w1, #0x37
   80bac:	1100c024 	add	w4, w1, #0x30
   80bb0:	7100283f 	cmp	w1, #0xa
   80bb4:	1a853084 	csel	w4, w4, w5, cc  // cc = lo, ul, last
   80bb8:	d503201f 	nop
   80bbc:	b9400041 	ldr	w1, [x2]
   80bc0:	362fffc1 	tbz	w1, #5, 80bb8 <uart_puthex+0x30>
   80bc4:	b90000c4 	str	w4, [x6]
   80bc8:	51001063 	sub	w3, w3, #0x4
   80bcc:	3100107f 	cmn	w3, #0x4
   80bd0:	54fffe81 	b.ne	80ba0 <uart_puthex+0x18>  // b.any
   80bd4:	d65f03c0 	ret

0000000000080bd8 <init_GPIO24_to_risingEdgeInterrupt>:
   80bd8:	d2800102 	mov	x2, #0x8                   	// #8
   80bdc:	d2801283 	mov	x3, #0x94                  	// #148
   80be0:	f2a7e402 	movk	x2, #0x3f20, lsl #16
   80be4:	f2a7e403 	movk	x3, #0x3f20, lsl #16
   80be8:	528012c0 	mov	w0, #0x96                  	// #150
   80bec:	b9400041 	ldr	w1, [x2]
   80bf0:	12137021 	and	w1, w1, #0xffffe3ff
   80bf4:	b9000041 	str	w1, [x2]
   80bf8:	b900007f 	str	wzr, [x3]
   80bfc:	d503201f 	nop
   80c00:	d503201f 	nop
   80c04:	71000400 	subs	w0, w0, #0x1
   80c08:	54ffffc1 	b.ne	80c00 <init_GPIO24_to_risingEdgeInterrupt+0x28>  // b.any
   80c0c:	d2801301 	mov	x1, #0x98                  	// #152
   80c10:	52a02002 	mov	w2, #0x1000000             	// #16777216
   80c14:	f2a7e401 	movk	x1, #0x3f20, lsl #16
   80c18:	528012c0 	mov	w0, #0x96                  	// #150
   80c1c:	b9000022 	str	w2, [x1]
   80c20:	d503201f 	nop
   80c24:	71000400 	subs	w0, w0, #0x1
   80c28:	54ffffc1 	b.ne	80c20 <init_GPIO24_to_risingEdgeInterrupt+0x48>  // b.any
   80c2c:	d2801301 	mov	x1, #0x98                  	// #152
   80c30:	d2800982 	mov	x2, #0x4c                  	// #76
   80c34:	f2a7e401 	movk	x1, #0x3f20, lsl #16
   80c38:	f2a7e402 	movk	x2, #0x3f20, lsl #16
   80c3c:	d2964280 	mov	x0, #0xb214                	// #45588
   80c40:	52a02003 	mov	w3, #0x1000000             	// #16777216
   80c44:	b900003f 	str	wzr, [x1]
   80c48:	f2a7e000 	movk	x0, #0x3f00, lsl #16
   80c4c:	b9000043 	str	w3, [x2]
   80c50:	52a00201 	mov	w1, #0x100000              	// #1048576
   80c54:	b9000001 	str	w1, [x0]
   80c58:	d65f03c0 	ret
   80c5c:	d503201f 	nop

0000000000080c60 <init_GPIO23_to_fallingEdgeInterrupt>:
   80c60:	d2800102 	mov	x2, #0x8                   	// #8
   80c64:	d2801283 	mov	x3, #0x94                  	// #148
   80c68:	f2a7e402 	movk	x2, #0x3f20, lsl #16
   80c6c:	f2a7e403 	movk	x3, #0x3f20, lsl #16
   80c70:	528012c0 	mov	w0, #0x96                  	// #150
   80c74:	b9400041 	ldr	w1, [x2]
   80c78:	12147021 	and	w1, w1, #0xfffff1ff
   80c7c:	b9000041 	str	w1, [x2]
   80c80:	b900007f 	str	wzr, [x3]
   80c84:	d503201f 	nop
   80c88:	d503201f 	nop
   80c8c:	71000400 	subs	w0, w0, #0x1
   80c90:	54ffffc1 	b.ne	80c88 <init_GPIO23_to_fallingEdgeInterrupt+0x28>  // b.any
   80c94:	d2801301 	mov	x1, #0x98                  	// #152
   80c98:	52a01002 	mov	w2, #0x800000              	// #8388608
   80c9c:	f2a7e401 	movk	x1, #0x3f20, lsl #16
   80ca0:	528012c0 	mov	w0, #0x96                  	// #150
   80ca4:	b9000022 	str	w2, [x1]
   80ca8:	d503201f 	nop
   80cac:	71000400 	subs	w0, w0, #0x1
   80cb0:	54ffffc1 	b.ne	80ca8 <init_GPIO23_to_fallingEdgeInterrupt+0x48>  // b.any
   80cb4:	d2801301 	mov	x1, #0x98                  	// #152
   80cb8:	d2800b02 	mov	x2, #0x58                  	// #88
   80cbc:	f2a7e401 	movk	x1, #0x3f20, lsl #16
   80cc0:	f2a7e402 	movk	x2, #0x3f20, lsl #16
   80cc4:	d2964280 	mov	x0, #0xb214                	// #45588
   80cc8:	52a01003 	mov	w3, #0x800000              	// #8388608
   80ccc:	b900003f 	str	wzr, [x1]
   80cd0:	f2a7e000 	movk	x0, #0x3f00, lsl #16
   80cd4:	b9000043 	str	w3, [x2]
   80cd8:	52a00201 	mov	w1, #0x100000              	// #1048576
   80cdc:	b9000001 	str	w1, [x0]
   80ce0:	d65f03c0 	ret
   80ce4:	d503201f 	nop

0000000000080ce8 <init_GPIO17_to_output>:
   80ce8:	d2800082 	mov	x2, #0x4                   	// #4
   80cec:	d2801283 	mov	x3, #0x94                  	// #148
   80cf0:	f2a7e402 	movk	x2, #0x3f20, lsl #16
   80cf4:	f2a7e403 	movk	x3, #0x3f20, lsl #16
   80cf8:	528012c0 	mov	w0, #0x96                  	// #150
   80cfc:	b9400041 	ldr	w1, [x2]
   80d00:	12087021 	and	w1, w1, #0xff1fffff
   80d04:	320b0021 	orr	w1, w1, #0x200000
   80d08:	b9000041 	str	w1, [x2]
   80d0c:	b900007f 	str	wzr, [x3]
   80d10:	d503201f 	nop
   80d14:	71000400 	subs	w0, w0, #0x1
   80d18:	54ffffc1 	b.ne	80d10 <init_GPIO17_to_output+0x28>  // b.any
   80d1c:	d2801301 	mov	x1, #0x98                  	// #152
   80d20:	52a00042 	mov	w2, #0x20000               	// #131072
   80d24:	f2a7e401 	movk	x1, #0x3f20, lsl #16
   80d28:	528012c0 	mov	w0, #0x96                  	// #150
   80d2c:	b9000022 	str	w2, [x1]
   80d30:	d503201f 	nop
   80d34:	71000400 	subs	w0, w0, #0x1
   80d38:	54ffffc1 	b.ne	80d30 <init_GPIO17_to_output+0x48>  // b.any
   80d3c:	d2801300 	mov	x0, #0x98                  	// #152
   80d40:	f2a7e400 	movk	x0, #0x3f20, lsl #16
   80d44:	b900001f 	str	wzr, [x0]
   80d48:	d65f03c0 	ret
   80d4c:	d503201f 	nop

0000000000080d50 <set_GPIO17>:
   80d50:	d2800380 	mov	x0, #0x1c                  	// #28
   80d54:	52a00041 	mov	w1, #0x20000               	// #131072
   80d58:	f2a7e400 	movk	x0, #0x3f20, lsl #16
   80d5c:	b9000001 	str	w1, [x0]
   80d60:	d65f03c0 	ret
   80d64:	d503201f 	nop

0000000000080d68 <clear_GPIO17>:
   80d68:	d2800500 	mov	x0, #0x28                  	// #40
   80d6c:	52a00041 	mov	w1, #0x20000               	// #131072
   80d70:	f2a7e400 	movk	x0, #0x3f20, lsl #16
   80d74:	b9000001 	str	w1, [x0]
   80d78:	d65f03c0 	ret
   80d7c:	d503201f 	nop

0000000000080d80 <init_GPIO27_to_output>:
   80d80:	d2800102 	mov	x2, #0x8                   	// #8
   80d84:	d2801283 	mov	x3, #0x94                  	// #148
   80d88:	f2a7e402 	movk	x2, #0x3f20, lsl #16
   80d8c:	f2a7e403 	movk	x3, #0x3f20, lsl #16
   80d90:	528012c0 	mov	w0, #0x96                  	// #150
   80d94:	b9400041 	ldr	w1, [x2]
   80d98:	12087021 	and	w1, w1, #0xff1fffff
   80d9c:	320b0021 	orr	w1, w1, #0x200000
   80da0:	b9000041 	str	w1, [x2]
   80da4:	b900007f 	str	wzr, [x3]
   80da8:	d503201f 	nop
   80dac:	71000400 	subs	w0, w0, #0x1
   80db0:	54ffffc1 	b.ne	80da8 <init_GPIO27_to_output+0x28>  // b.any
   80db4:	d2801301 	mov	x1, #0x98                  	// #152
   80db8:	52a10002 	mov	w2, #0x8000000             	// #134217728
   80dbc:	f2a7e401 	movk	x1, #0x3f20, lsl #16
   80dc0:	528012c0 	mov	w0, #0x96                  	// #150
   80dc4:	b9000022 	str	w2, [x1]
   80dc8:	d503201f 	nop
   80dcc:	71000400 	subs	w0, w0, #0x1
   80dd0:	54ffffc1 	b.ne	80dc8 <init_GPIO27_to_output+0x48>  // b.any
   80dd4:	d2801300 	mov	x0, #0x98                  	// #152
   80dd8:	f2a7e400 	movk	x0, #0x3f20, lsl #16
   80ddc:	b900001f 	str	wzr, [x0]
   80de0:	d65f03c0 	ret
   80de4:	d503201f 	nop

0000000000080de8 <set_GPIO27>:
   80de8:	d2800380 	mov	x0, #0x1c                  	// #28
   80dec:	52a10001 	mov	w1, #0x8000000             	// #134217728
   80df0:	f2a7e400 	movk	x0, #0x3f20, lsl #16
   80df4:	b9000001 	str	w1, [x0]
   80df8:	d65f03c0 	ret
   80dfc:	d503201f 	nop

0000000000080e00 <clear_GPIO27>:
   80e00:	d2800500 	mov	x0, #0x28                  	// #40
   80e04:	52a10001 	mov	w1, #0x8000000             	// #134217728
   80e08:	f2a7e400 	movk	x0, #0x3f20, lsl #16
   80e0c:	b9000001 	str	w1, [x0]
   80e10:	d65f03c0 	ret
   80e14:	d503201f 	nop

0000000000080e18 <init_GPIO22_to_output>:
   80e18:	d2800102 	mov	x2, #0x8                   	// #8
   80e1c:	d2801283 	mov	x3, #0x94                  	// #148
   80e20:	f2a7e402 	movk	x2, #0x3f20, lsl #16
   80e24:	f2a7e403 	movk	x3, #0x3f20, lsl #16
   80e28:	528012c0 	mov	w0, #0x96                  	// #150
   80e2c:	b9400041 	ldr	w1, [x2]
   80e30:	12177021 	and	w1, w1, #0xfffffe3f
   80e34:	321a0021 	orr	w1, w1, #0x40
   80e38:	b9000041 	str	w1, [x2]
   80e3c:	b900007f 	str	wzr, [x3]
   80e40:	d503201f 	nop
   80e44:	71000400 	subs	w0, w0, #0x1
   80e48:	54ffffc1 	b.ne	80e40 <init_GPIO22_to_output+0x28>  // b.any
   80e4c:	d2801301 	mov	x1, #0x98                  	// #152
   80e50:	52a00802 	mov	w2, #0x400000              	// #4194304
   80e54:	f2a7e401 	movk	x1, #0x3f20, lsl #16
   80e58:	528012c0 	mov	w0, #0x96                  	// #150
   80e5c:	b9000022 	str	w2, [x1]
   80e60:	d503201f 	nop
   80e64:	71000400 	subs	w0, w0, #0x1
   80e68:	54ffffc1 	b.ne	80e60 <init_GPIO22_to_output+0x48>  // b.any
   80e6c:	d2801300 	mov	x0, #0x98                  	// #152
   80e70:	f2a7e400 	movk	x0, #0x3f20, lsl #16
   80e74:	b900001f 	str	wzr, [x0]
   80e78:	d65f03c0 	ret
   80e7c:	d503201f 	nop

0000000000080e80 <set_GPIO22>:
   80e80:	d2800380 	mov	x0, #0x1c                  	// #28
   80e84:	52a00801 	mov	w1, #0x400000              	// #4194304
   80e88:	f2a7e400 	movk	x0, #0x3f20, lsl #16
   80e8c:	b9000001 	str	w1, [x0]
   80e90:	d65f03c0 	ret
   80e94:	d503201f 	nop

0000000000080e98 <clear_GPIO22>:
   80e98:	d2800500 	mov	x0, #0x28                  	// #40
   80e9c:	52a00801 	mov	w1, #0x400000              	// #4194304
   80ea0:	f2a7e400 	movk	x0, #0x3f20, lsl #16
   80ea4:	b9000001 	str	w1, [x0]
   80ea8:	d65f03c0 	ret
   80eac:	00000000 	.inst	0x00000000 ; undefined

0000000000080eb0 <main>:
   80eb0:	a9ba7bfd 	stp	x29, x30, [sp, #-96]!
   80eb4:	910003fd 	mov	x29, sp
   80eb8:	a90153f3 	stp	x19, x20, [sp, #16]
   80ebc:	d2800994 	mov	x20, #0x4c                  	// #76
   80ec0:	a9025bf5 	stp	x21, x22, [sp, #32]
   80ec4:	d2964296 	mov	x22, #0xb214                	// #45588
   80ec8:	a90363f7 	stp	x23, x24, [sp, #48]
   80ecc:	f2a7e016 	movk	x22, #0x3f00, lsl #16
   80ed0:	a9046bf9 	stp	x25, x26, [sp, #64]
   80ed4:	f2a7e414 	movk	x20, #0x3f20, lsl #16
   80ed8:	a90573fb 	stp	x27, x28, [sp, #80]
   80edc:	97fffec5 	bl	809f0 <uart_init>
   80ee0:	97fffeaa 	bl	80988 <getCurrentEL>
   80ee4:	2a0003f3 	mov	w19, w0
   80ee8:	b0000000 	adrp	x0, 81000 <main+0x150>
   80eec:	910fc000 	add	x0, x0, #0x3f0
   80ef0:	97ffff0e 	bl	80b28 <uart_puts>
   80ef4:	b0000015 	adrp	x21, 81000 <main+0x150>
   80ef8:	2a1303e0 	mov	w0, w19
   80efc:	b0000013 	adrp	x19, 81000 <main+0x150>
   80f00:	97ffff22 	bl	80b88 <uart_puthex>
   80f04:	91104273 	add	x19, x19, #0x410
   80f08:	aa1303e0 	mov	x0, x19
   80f0c:	97ffff07 	bl	80b28 <uart_puts>
   80f10:	97fffea2 	bl	80998 <getSPSel>
   80f14:	2a0003f7 	mov	w23, w0
   80f18:	b0000000 	adrp	x0, 81000 <main+0x150>
   80f1c:	91106000 	add	x0, x0, #0x418
   80f20:	97ffff02 	bl	80b28 <uart_puts>
   80f24:	2a1703e0 	mov	w0, w23
   80f28:	97ffff18 	bl	80b88 <uart_puthex>
   80f2c:	aa1303e0 	mov	x0, x19
   80f30:	97fffefe 	bl	80b28 <uart_puts>
   80f34:	97fffe9f 	bl	809b0 <getDAIF>
   80f38:	2a0003f7 	mov	w23, w0
   80f3c:	b0000000 	adrp	x0, 81000 <main+0x150>
   80f40:	9110a000 	add	x0, x0, #0x428
   80f44:	97fffef9 	bl	80b28 <uart_puts>
   80f48:	2a1703e0 	mov	w0, w23
   80f4c:	97ffff0f 	bl	80b88 <uart_puthex>
   80f50:	aa1303e0 	mov	x0, x19
   80f54:	97fffef5 	bl	80b28 <uart_puts>
   80f58:	b94002d7 	ldr	w23, [x22]
   80f5c:	b0000000 	adrp	x0, 81000 <main+0x150>
   80f60:	91112000 	add	x0, x0, #0x448
   80f64:	97fffef1 	bl	80b28 <uart_puts>
   80f68:	2a1703e0 	mov	w0, w23
   80f6c:	97ffff07 	bl	80b88 <uart_puthex>
   80f70:	aa1303e0 	mov	x0, x19
   80f74:	97fffeed 	bl	80b28 <uart_puts>
   80f78:	b9400297 	ldr	w23, [x20]
   80f7c:	b0000000 	adrp	x0, 81000 <main+0x150>
   80f80:	9111c000 	add	x0, x0, #0x470
   80f84:	97fffee9 	bl	80b28 <uart_puts>
   80f88:	2a1703e0 	mov	w0, w23
   80f8c:	97fffeff 	bl	80b88 <uart_puthex>
   80f90:	aa1303e0 	mov	x0, x19
   80f94:	97fffee5 	bl	80b28 <uart_puts>
   80f98:	52800020 	mov	w0, #0x1                   	// #1
   80f9c:	b905f2a0 	str	w0, [x21, #1520]
   80fa0:	97ffff0e 	bl	80bd8 <init_GPIO24_to_risingEdgeInterrupt>
   80fa4:	97ffff2f 	bl	80c60 <init_GPIO23_to_fallingEdgeInterrupt>
   80fa8:	97fffe8a 	bl	809d0 <enableIRQ>
   80fac:	97fffe81 	bl	809b0 <getDAIF>
   80fb0:	2a0003f7 	mov	w23, w0
   80fb4:	b0000000 	adrp	x0, 81000 <main+0x150>
   80fb8:	91122000 	add	x0, x0, #0x488
   80fbc:	97fffedb 	bl	80b28 <uart_puts>
   80fc0:	2a1703e0 	mov	w0, w23
   80fc4:	97fffef1 	bl	80b88 <uart_puthex>
   80fc8:	aa1303e0 	mov	x0, x19
   80fcc:	97fffed7 	bl	80b28 <uart_puts>
   80fd0:	b94002d6 	ldr	w22, [x22]
   80fd4:	b0000000 	adrp	x0, 81000 <main+0x150>
   80fd8:	9112a000 	add	x0, x0, #0x4a8
   80fdc:	97fffed3 	bl	80b28 <uart_puts>
   80fe0:	2a1603e0 	mov	w0, w22
   80fe4:	97fffee9 	bl	80b88 <uart_puthex>
   80fe8:	aa1303e0 	mov	x0, x19
   80fec:	97fffecf 	bl	80b28 <uart_puts>
   80ff0:	b9400294 	ldr	w20, [x20]
   80ff4:	b0000000 	adrp	x0, 81000 <main+0x150>
   80ff8:	91132000 	add	x0, x0, #0x4c8
   80ffc:	97fffecb 	bl	80b28 <uart_puts>
   81000:	2a1403e0 	mov	w0, w20
   81004:	97fffee1 	bl	80b88 <uart_puthex>
   81008:	aa1303e0 	mov	x0, x19
   8100c:	97fffec7 	bl	80b28 <uart_puts>
   81010:	90000000 	adrp	x0, 81000 <main+0x150>
   81014:	91138000 	add	x0, x0, #0x4e0
   81018:	97fffec4 	bl	80b28 <uart_puts>
   8101c:	d2800082 	mov	x2, #0x4                   	// #4
   81020:	d2801283 	mov	x3, #0x94                  	// #148
   81024:	f2a7e402 	movk	x2, #0x3f20, lsl #16
   81028:	f2a7e403 	movk	x3, #0x3f20, lsl #16
   8102c:	528012c1 	mov	w1, #0x96                  	// #150
   81030:	b9400040 	ldr	w0, [x2]
   81034:	12087000 	and	w0, w0, #0xff1fffff
   81038:	320b0000 	orr	w0, w0, #0x200000
   8103c:	b9000040 	str	w0, [x2]
   81040:	b900007f 	str	wzr, [x3]
   81044:	d503201f 	nop
   81048:	71000421 	subs	w1, w1, #0x1
   8104c:	54ffffc1 	b.ne	81044 <main+0x194>  // b.any
   81050:	d2801301 	mov	x1, #0x98                  	// #152
   81054:	52a00042 	mov	w2, #0x20000               	// #131072
   81058:	f2a7e401 	movk	x1, #0x3f20, lsl #16
   8105c:	528012c0 	mov	w0, #0x96                  	// #150
   81060:	b9000022 	str	w2, [x1]
   81064:	d503201f 	nop
   81068:	71000400 	subs	w0, w0, #0x1
   8106c:	54ffffc1 	b.ne	81064 <main+0x1b4>  // b.any
   81070:	d2801300 	mov	x0, #0x98                  	// #152
   81074:	d2800102 	mov	x2, #0x8                   	// #8
   81078:	f2a7e400 	movk	x0, #0x3f20, lsl #16
   8107c:	f2a7e402 	movk	x2, #0x3f20, lsl #16
   81080:	d2801283 	mov	x3, #0x94                  	// #148
   81084:	528012c1 	mov	w1, #0x96                  	// #150
   81088:	b900001f 	str	wzr, [x0]
   8108c:	f2a7e403 	movk	x3, #0x3f20, lsl #16
   81090:	b9400040 	ldr	w0, [x2]
   81094:	12087000 	and	w0, w0, #0xff1fffff
   81098:	320b0000 	orr	w0, w0, #0x200000
   8109c:	b9000040 	str	w0, [x2]
   810a0:	b900007f 	str	wzr, [x3]
   810a4:	d503201f 	nop
   810a8:	71000421 	subs	w1, w1, #0x1
   810ac:	54ffffc1 	b.ne	810a4 <main+0x1f4>  // b.any
   810b0:	d2801301 	mov	x1, #0x98                  	// #152
   810b4:	52a10002 	mov	w2, #0x8000000             	// #134217728
   810b8:	f2a7e401 	movk	x1, #0x3f20, lsl #16
   810bc:	528012c0 	mov	w0, #0x96                  	// #150
   810c0:	b9000022 	str	w2, [x1]
   810c4:	d503201f 	nop
   810c8:	71000400 	subs	w0, w0, #0x1
   810cc:	54ffffc1 	b.ne	810c4 <main+0x214>  // b.any
   810d0:	d2801300 	mov	x0, #0x98                  	// #152
   810d4:	d2800102 	mov	x2, #0x8                   	// #8
   810d8:	f2a7e400 	movk	x0, #0x3f20, lsl #16
   810dc:	f2a7e402 	movk	x2, #0x3f20, lsl #16
   810e0:	d2801283 	mov	x3, #0x94                  	// #148
   810e4:	528012c1 	mov	w1, #0x96                  	// #150
   810e8:	b900001f 	str	wzr, [x0]
   810ec:	f2a7e403 	movk	x3, #0x3f20, lsl #16
   810f0:	b9400040 	ldr	w0, [x2]
   810f4:	12177000 	and	w0, w0, #0xfffffe3f
   810f8:	321a0000 	orr	w0, w0, #0x40
   810fc:	b9000040 	str	w0, [x2]
   81100:	b900007f 	str	wzr, [x3]
   81104:	d503201f 	nop
   81108:	71000421 	subs	w1, w1, #0x1
   8110c:	54ffffc1 	b.ne	81104 <main+0x254>  // b.any
   81110:	d2801301 	mov	x1, #0x98                  	// #152
   81114:	52a00802 	mov	w2, #0x400000              	// #4194304
   81118:	f2a7e401 	movk	x1, #0x3f20, lsl #16
   8111c:	528012c0 	mov	w0, #0x96                  	// #150
   81120:	b9000022 	str	w2, [x1]
   81124:	d503201f 	nop
   81128:	71000400 	subs	w0, w0, #0x1
   8112c:	54ffffc1 	b.ne	81124 <main+0x274>  // b.any
   81130:	d2801300 	mov	x0, #0x98                  	// #152
   81134:	d2800393 	mov	x19, #0x1c                  	// #28
   81138:	f2a7e400 	movk	x0, #0x3f20, lsl #16
   8113c:	d2800518 	mov	x24, #0x28                  	// #40
   81140:	9117c2b5 	add	x21, x21, #0x5f0
   81144:	90000019 	adrp	x25, 81000 <main+0x150>
   81148:	90000014 	adrp	x20, 81000 <main+0x150>
   8114c:	90000017 	adrp	x23, 81000 <main+0x150>
   81150:	90000016 	adrp	x22, 81000 <main+0x150>
   81154:	f2a7e413 	movk	x19, #0x3f20, lsl #16
   81158:	f2a7e418 	movk	x24, #0x3f20, lsl #16
   8115c:	b900001f 	str	wzr, [x0]
   81160:	b94002a0 	ldr	w0, [x21]
   81164:	9114233c 	add	x28, x25, #0x508
   81168:	9114829b 	add	x27, x20, #0x520
   8116c:	52a0005a 	mov	w26, #0x20000               	// #131072
   81170:	7100041f 	cmp	w0, #0x1
   81174:	54000560 	b.eq	81220 <main+0x370>  // b.none
   81178:	7100081f 	cmp	w0, #0x2
   8117c:	54ffffa1 	b.ne	81170 <main+0x2c0>  // b.any
   81180:	90000000 	adrp	x0, 81000 <main+0x150>
   81184:	91154000 	add	x0, x0, #0x550
   81188:	97fffe68 	bl	80b28 <uart_puts>
   8118c:	911502c0 	add	x0, x22, #0x540
   81190:	97fffe66 	bl	80b28 <uart_puts>
   81194:	52a00800 	mov	w0, #0x400000              	// #4194304
   81198:	b9000260 	str	w0, [x19]
   8119c:	52a00040 	mov	w0, #0x20000               	// #131072
   811a0:	b9000300 	str	w0, [x24]
   811a4:	52a10002 	mov	w2, #0x8000000             	// #134217728
   811a8:	12bfff00 	mov	w0, #0x7ffff               	// #524287
   811ac:	b9000302 	str	w2, [x24]
   811b0:	d503201f 	nop
   811b4:	71000400 	subs	w0, w0, #0x1
   811b8:	54ffffc1 	b.ne	811b0 <main+0x300>  // b.any
   811bc:	9114c2e0 	add	x0, x23, #0x530
   811c0:	97fffe5a 	bl	80b28 <uart_puts>
   811c4:	52a10000 	mov	w0, #0x8000000             	// #134217728
   811c8:	b9000260 	str	w0, [x19]
   811cc:	52a00040 	mov	w0, #0x20000               	// #131072
   811d0:	b9000300 	str	w0, [x24]
   811d4:	52a00802 	mov	w2, #0x400000              	// #4194304
   811d8:	12bfff00 	mov	w0, #0x7ffff               	// #524287
   811dc:	b9000302 	str	w2, [x24]
   811e0:	d503201f 	nop
   811e4:	71000400 	subs	w0, w0, #0x1
   811e8:	54ffffc1 	b.ne	811e0 <main+0x330>  // b.any
   811ec:	91148280 	add	x0, x20, #0x520
   811f0:	97fffe4e 	bl	80b28 <uart_puts>
   811f4:	52a00040 	mov	w0, #0x20000               	// #131072
   811f8:	b9000260 	str	w0, [x19]
   811fc:	52a00800 	mov	w0, #0x400000              	// #4194304
   81200:	b9000300 	str	w0, [x24]
   81204:	52a10002 	mov	w2, #0x8000000             	// #134217728
   81208:	12bfff00 	mov	w0, #0x7ffff               	// #524287
   8120c:	b9000302 	str	w2, [x24]
   81210:	d503201f 	nop
   81214:	71000400 	subs	w0, w0, #0x1
   81218:	54ffffc1 	b.ne	81210 <main+0x360>  // b.any
   8121c:	17ffffd1 	b	81160 <main+0x2b0>
   81220:	aa1c03e0 	mov	x0, x28
   81224:	97fffe41 	bl	80b28 <uart_puts>
   81228:	aa1b03e0 	mov	x0, x27
   8122c:	97fffe3f 	bl	80b28 <uart_puts>
   81230:	b900027a 	str	w26, [x19]
   81234:	52a10000 	mov	w0, #0x8000000             	// #134217728
   81238:	b9000300 	str	w0, [x24]
   8123c:	52a00802 	mov	w2, #0x400000              	// #4194304
   81240:	12bffe00 	mov	w0, #0xfffff               	// #1048575
   81244:	b9000302 	str	w2, [x24]
   81248:	d503201f 	nop
   8124c:	71000400 	subs	w0, w0, #0x1
   81250:	54ffffc1 	b.ne	81248 <main+0x398>  // b.any
   81254:	9114c2e0 	add	x0, x23, #0x530
   81258:	97fffe34 	bl	80b28 <uart_puts>
   8125c:	52a10000 	mov	w0, #0x8000000             	// #134217728
   81260:	b9000260 	str	w0, [x19]
   81264:	b900031a 	str	w26, [x24]
   81268:	52a00802 	mov	w2, #0x400000              	// #4194304
   8126c:	12bffe00 	mov	w0, #0xfffff               	// #1048575
   81270:	b9000302 	str	w2, [x24]
   81274:	d503201f 	nop
   81278:	d503201f 	nop
   8127c:	71000400 	subs	w0, w0, #0x1
   81280:	54ffffc1 	b.ne	81278 <main+0x3c8>  // b.any
   81284:	911502c0 	add	x0, x22, #0x540
   81288:	97fffe28 	bl	80b28 <uart_puts>
   8128c:	52a00800 	mov	w0, #0x400000              	// #4194304
   81290:	b9000260 	str	w0, [x19]
   81294:	b900031a 	str	w26, [x24]
   81298:	52a10002 	mov	w2, #0x8000000             	// #134217728
   8129c:	12bffe00 	mov	w0, #0xfffff               	// #1048575
   812a0:	b9000302 	str	w2, [x24]
   812a4:	d503201f 	nop
   812a8:	d503201f 	nop
   812ac:	71000400 	subs	w0, w0, #0x1
   812b0:	54ffffc1 	b.ne	812a8 <main+0x3f8>  // b.any
   812b4:	b94002a0 	ldr	w0, [x21]
   812b8:	17ffffb0 	b	81178 <main+0x2c8>
   812bc:	00000000 	.inst	0x00000000 ; undefined

00000000000812c0 <IRQ_handler>:
   812c0:	a9bd7bfd 	stp	x29, x30, [sp, #-48]!
   812c4:	90000000 	adrp	x0, 81000 <main+0x150>
   812c8:	9115a000 	add	x0, x0, #0x568
   812cc:	910003fd 	mov	x29, sp
   812d0:	a90153f3 	stp	x19, x20, [sp, #16]
   812d4:	d2964114 	mov	x20, #0xb208                	// #45576
   812d8:	a9025bf5 	stp	x21, x22, [sp, #32]
   812dc:	97fffe13 	bl	80b28 <uart_puts>
   812e0:	97fffdaa 	bl	80988 <getCurrentEL>
   812e4:	2a0003f3 	mov	w19, w0
   812e8:	90000000 	adrp	x0, 81000 <main+0x150>
   812ec:	91162000 	add	x0, x0, #0x588
   812f0:	97fffe0e 	bl	80b28 <uart_puts>
   812f4:	f2a7e014 	movk	x20, #0x3f00, lsl #16
   812f8:	2a1303e0 	mov	w0, w19
   812fc:	90000013 	adrp	x19, 81000 <main+0x150>
   81300:	97fffe22 	bl	80b88 <uart_puthex>
   81304:	91104273 	add	x19, x19, #0x410
   81308:	aa1303e0 	mov	x0, x19
   8130c:	97fffe07 	bl	80b28 <uart_puts>
   81310:	d2800815 	mov	x21, #0x40                  	// #64
   81314:	f2a7e415 	movk	x21, #0x3f20, lsl #16
   81318:	97fffda6 	bl	809b0 <getDAIF>
   8131c:	2a0003f6 	mov	w22, w0
   81320:	90000000 	adrp	x0, 81000 <main+0x150>
   81324:	91168000 	add	x0, x0, #0x5a0
   81328:	97fffe00 	bl	80b28 <uart_puts>
   8132c:	2a1603e0 	mov	w0, w22
   81330:	97fffe16 	bl	80b88 <uart_puthex>
   81334:	aa1303e0 	mov	x0, x19
   81338:	97fffdfc 	bl	80b28 <uart_puts>
   8133c:	b9400296 	ldr	w22, [x20]
   81340:	90000000 	adrp	x0, 81000 <main+0x150>
   81344:	9116e000 	add	x0, x0, #0x5b8
   81348:	97fffdf8 	bl	80b28 <uart_puts>
   8134c:	2a1603e0 	mov	w0, w22
   81350:	97fffe0e 	bl	80b88 <uart_puthex>
   81354:	aa1303e0 	mov	x0, x19
   81358:	97fffdf4 	bl	80b28 <uart_puts>
   8135c:	b94002b6 	ldr	w22, [x21]
   81360:	90000000 	adrp	x0, 81000 <main+0x150>
   81364:	91176000 	add	x0, x0, #0x5d8
   81368:	97fffdf0 	bl	80b28 <uart_puts>
   8136c:	2a1603e0 	mov	w0, w22
   81370:	97fffe06 	bl	80b88 <uart_puthex>
   81374:	aa1303e0 	mov	x0, x19
   81378:	97fffdec 	bl	80b28 <uart_puts>
   8137c:	b9400280 	ldr	w0, [x20]
   81380:	7144001f 	cmp	w0, #0x100, lsl #12
   81384:	540000a0 	b.eq	81398 <IRQ_handler+0xd8>  // b.none
   81388:	a94153f3 	ldp	x19, x20, [sp, #16]
   8138c:	a9425bf5 	ldp	x21, x22, [sp, #32]
   81390:	a8c37bfd 	ldp	x29, x30, [sp], #48
   81394:	d65f03c0 	ret
   81398:	b94002a0 	ldr	w0, [x21]
   8139c:	52a02001 	mov	w1, #0x1000000             	// #16777216
   813a0:	6b01001f 	cmp	w0, w1
   813a4:	540000a1 	b.ne	813b8 <IRQ_handler+0xf8>  // b.any
   813a8:	90000001 	adrp	x1, 81000 <main+0x150>
   813ac:	b90002a0 	str	w0, [x21]
   813b0:	52800020 	mov	w0, #0x1                   	// #1
   813b4:	b905f020 	str	w0, [x1, #1520]
   813b8:	d2800800 	mov	x0, #0x40                  	// #64
   813bc:	f2a7e400 	movk	x0, #0x3f20, lsl #16
   813c0:	b9400001 	ldr	w1, [x0]
   813c4:	7160003f 	cmp	w1, #0x800, lsl #12
   813c8:	54fffe01 	b.ne	81388 <IRQ_handler+0xc8>  // b.any
   813cc:	b9000001 	str	w1, [x0]
   813d0:	90000002 	adrp	x2, 81000 <main+0x150>
   813d4:	52800040 	mov	w0, #0x2                   	// #2
   813d8:	a94153f3 	ldp	x19, x20, [sp, #16]
   813dc:	b905f040 	str	w0, [x2, #1520]
   813e0:	a9425bf5 	ldp	x21, x22, [sp, #32]
   813e4:	a8c37bfd 	ldp	x29, x30, [sp], #48
   813e8:	d65f03c0 	ret
